(dp0
S'TRACK_MOVEMENT_DICT'
p1
(dp2
(V895656306
p3
Vf239d55c2
p4
tp5
(dp6
Vpass_time
p7
cnumpy.core.multiarray
scalar
p8
(cnumpy
dtype
p9
(S'i4'
p10
I0
I1
tp11
Rp12
(I3
S'<'
p13
NNNI-1
I-1
I0
tp14
bS'\xf3\x02\x00\x00'
p15
tp16
Rp17
sVtrack
p18
VD0/0..001(!!9ty(()((!)()ttzt~z(!!($/KCIF3EHE91:??8@@Z
p19
sVdistance
p20
I69
ss(Vfc064fc73
p21
V4fd9bb1ee
p22
tp23
(dp24
g7
g8
(g12
S'\x0f\x03\x00\x00'
p25
tp26
Rp27
sg18
VD0/..0//(!!9ty()!))(!))zvzssss(!!($/KJFIE6KF9A:9AA9@Z
p28
sg20
I56
ss(Ve11621516
p29
V8d38b81a2
p30
tp31
(dp32
g7
g8
(g9
(S'i8'
p33
I0
I1
tp34
Rp35
(I3
S'<'
p36
NNNI-1
I-1
I0
tp37
bS'\x9b\x03\x00\x00\x00\x00\x00\x00'
p38
tp39
Rp40
sg18
VD.00..100100-(!!9t(()(((((((!))yus~tzsvzvzt(!!($/K?I?H?3FH3HK:A9:::8@@8999Z
p41
sg20
I99
ss(V26ebd36a0
p42
V150edbe6c
p43
tp44
(dp45
g7
g8
(g12
S'\xc0\x02\x00\x00'
p46
tp47
Rp48
sg18
VD-111/1(!!9t)!))(!))u~u~uvts(!!($/KAG:B138:???:9?Z
p49
sg20
I55
ss(Vfc064fc73
p50
V8429c8ef7
p51
tp52
(dp53
g7
g8
(g12
S'3\x05\x00\x00'
p54
tp55
Rp56
sg18
VD-1.1.00.....1./.0.0/1.-(!!9t()((!)()(!)((()((!))!)(()!)y(~ttszvsztvszvstssz~z(!!($/KKGJGIF162J1JGI5E9:I5GGA8A99899@99A:AAA@?:A@9Z
p57
sg20
I171
ss(Ve11621516
p58
V4a3aac831
p59
tp60
(dp61
g7
g8
(g12
S'Y\x03\x00\x00'
p62
tp63
Rp64
sg18
VD,.1..0...0(!!9t)(!)()(!))(!)~us~tzvzvsu(!!($/KB4JDK2J67?A9::9:A@8A?Z
p65
sg20
I73
ss(Vfc064fc73
p66
Ve4d62f6f5
p67
tp68
(dp69
g7
g8
(g35
S'\xb3\x03\x00\x00\x00\x00\x00\x00'
p70
tp71
Rp72
sg18
VD-/00/11/10//,(!!9t)(!)(()!)()(!)(y)uvszvz~ttzvss(!!($/KD82A73AFBG:9B@??:89@8:A:8@AZ
p73
sg20
I106
ss(Ve0ebde8a0
p74
V1957f662
p75
tp76
(dp77
g7
g8
(g35
S'(\x05\x00\x00\x00\x00\x00\x00'
p78
tp79
Rp80
sg18
VD.1../.10/.1/01./.010/,-(!!9t(((((()((!)(()(!))((!))!)~z)!)~utvtzvutvuttt~tu~ut~(!!($/KFI:2HG94K?@?42KKJF5:4?8A99A@9?:9989?A?A:A88@@?Z
p81
sg20
I180
ss(V9f9cff207
p82
V0e9916442
p83
tp84
(dp85
g7
g8
(g12
S'*\x04\x00\x00'
p86
tp87
Rp88
sg18
VD-.10.00//..///0(!!9t)((!)()(!)(((((()tystz~tttssstzs~u(!!($/KI85IAD5@B1@CK7AEF?::@A8A:9:?:89@Z
p89
sg20
I121
ss(V969ffa43c
p90
V0d3b2ad58
p91
tp92
(dp93
g7
g8
(g35
S'\x11\x03\x00\x00\x00\x00\x00\x00'
p94
tp95
Rp96
sg18
VD,.//0.00..(!!9t)(!))((!))!))tz~zvzst(!!($/K38JBC62F8G8:899:A@Z
p97
sg20
I72
ss(V26ebd36a0
p98
V614266b6a
p99
tp100
(dp101
g7
g8
(g12
S'\x85\x04\x00\x00'
p102
tp103
Rp104
sg18
VD-.0..1/0.///1.101(!!9t(()(((((((((!))!))!)ytvsztstssvzvusvsuvzs(!!($/KF::?:G2FG:1B42JEK??99?9:?98?9A?@@@:@88Z
p105
sg20
I137
ss(Ve11621516
p106
V5d5aadd0f
p107
tp108
(dp109
g7
g8
(g35
S'T\x03\x00\x00\x00\x00\x00\x00'
p110
tp111
Rp112
sg18
VD//.//.....0(!!9t(()(!)()(!)((stsvtsutv(!!($/K1KIGKE:93C6@?A??::??Z
p113
sg20
I75
ss(V895656306
p114
V514a0117a
p115
tp116
(dp117
g7
g8
(g12
S'N\x05\x00\x00'
p118
tp119
Rp120
sg18
VD-11/1///1.0/000/.10..,,(!!9t)(!)()!))(!))(!)((((()(((!))ztvu~tuvsut~z~z~tstu~zv(!!($/K5G:4@C7:DIGFGK5@J?IH3BAE99AA9A9?9?98::A8?@?A?AZ
p121
sg20
I180
ss(V969ffa43c
p122
Veefc06a85
p123
tp124
(dp125
g7
g8
(g35
S'\xe7\x02\x00\x00\x00\x00\x00\x00'
p126
tp127
Rp128
sg18
VD.0110.111(!!9t)!))(((!))(stsz~ttu(!!($/KE9I6:133A8:89:9@:Z
p129
sg20
I79
ss(V26ebd36a0
p130
Vb174b0ec6
p131
tp132
(dp133
g7
g8
(g12
S'\x99\x02\x00\x00'
p134
tp135
Rp136
sg18
VD1.10/-(!!9ty((((((~zss(!!($/K55IIA8999:AZ
p137
sg20
I49
ss(V26ebd36a0
p138
V551a1fbab
p139
tp140
(dp141
g7
g8
(g12
S'\xaf\x04\x00\x00'
p142
tp143
Rp144
sg18
VD/1/10/1011/.0011/--(!!9ty((()!))(!))(!))((((!)t)!)~utvtsztvtuvttuvu~uv(!!($/KDE2:J2:::GH4D863GBA8?:A:8999A:8?A88@8AA@:Z
p145
sg20
I163
ss(V895656306
p146
V4c29bf691
p147
tp148
(dp149
g7
g8
(g12
S'\x0f\x03\x00\x00'
p150
tp151
Rp152
sg18
VD-/010..1/(!!9t()!))!)()!))uvtutsvzts(!!($/K662FADB4:89?:88?:A8Z
p153
sg20
I72
ss(V895656306
p154
Vac387695d
p155
tp156
(dp157
g7
g8
(g12
S'}\x04\x00\x00'
p158
tp159
Rp160
sg18
VD-//../0/0.1..1/01-(!!9t(((()!))!))(!))!))(!)((vsszstvustvuss~tus(!!($/KFJ?1HEJH84G69?B5KC?9@9:?:98?@:9A8:A@Z
p161
sg20
I133
ss(V895656306
p162
Vabf9d98a0
p163
tp164
(dp165
g7
g8
(g12
S'q\x04\x00\x00'
p166
tp167
Rp168
sg18
VD..0/./1.1100.10/./-(!!9t)(((!)((()!)(()(!))!)()uvsttssttssttu~u~t(!!($/K9I:JD@28?G68?C46J4F:???9998?A?@A?9:?:Z
p169
sg20
I147
ss(Vfc064fc73
p170
V99c99002b
p171
tp172
(dp173
g7
g8
(g12
S'\xd0\x04\x00\x00'
p174
tp175
Rp176
sg18
VD,.0.//100010/11./1/,,(!!9t)(!))((!)(((((()(!))!))!))ttzvtttuttvsuvustsvss(!!($/KBC683EA5K2CB6K3B6D:DC@?8:@8?A@??@@?9::@?A:Z
p177
sg20
I161
ss(V26ebd36a0
p178
V93d870b11
p179
tp180
(dp181
g7
g8
(g12
S'\xa2\x02\x00\x00'
p182
tp183
Rp184
sg18
VD../11./1(!!9t)((!))(!))uttst(!!($/K:1H@15C688??:Z
p185
sg20
I61
ss(V895656306
p186
Vd35560ad9
p187
tp188
(dp189
g7
g8
(g35
S'\xac\x03\x00\x00\x00\x00\x00\x00'
p190
tp191
Rp192
sg18
VD/001.0//./1(!!9t)(((!)(((()(zssvsstsssstuvts(!!($/K78EKA25I:97F?8@9998?:?99:9?Z
p193
sg20
I93
ss(V26ebd36a0
p194
Vf470bdd2f
p195
tp196
(dp197
g7
g8
(g12
S'\xe9\x04\x00\x00'
p198
tp199
Rp200
sg18
VD-01..10.../111/./0/01-(!!9t)!)()!)(()((!)(((((((()!))uvu~tzvzvssttust~zvzs~(!!($/KB7BF7@G5CJ358DE:4@3C2F?8A@:8AA8:9@AAA@:899?AZ
p201
sg20
I173
ss(Ve11621516
p202
V6e9dc8871
p203
tp204
(dp205
g7
g8
(g12
S'\x05\x03\x00\x00'
p206
tp207
Rp208
sg18
VD/.0010/.0(!!9t()((!)()!)(~zvz~z(!!($/KGCB8ADJ7G@@@:A?Z
p209
sg20
I71
ss(Ve11621516
p210
Vc34e72d51
p211
tp212
(dp213
g7
g8
(g35
S'\xe2\x02\x00\x00\x00\x00\x00\x00'
p214
tp215
Rp216
sg18
VD/./011//(!!9t((()!))!))uttt~ut(!!($/K9EC65GF9A?9?899Z
p217
sg20
I66
ss(V895656306
p218
V22687d725
p219
tp220
(dp221
g7
g8
(g35
S'z\x02\x00\x00\x00\x00\x00\x00'
p222
tp223
Rp224
sg18
VD,1./1-(!!9t)(((!))u~zs(!!($/K6F@65C999:Z
p225
sg20
I42
ss(Ve11621516
p226
V4923f20bb
p227
tp228
(dp229
g7
g8
(g35
S'\xbe\x02\x00\x00\x00\x00\x00\x00'
p230
tp231
Rp232
sg18
VD-1.1111(!!9t)(!))!))!)stt~z~u(!!($/KEA4B66A888:??:Z
p233
sg20
I63
ss(V969ffa43c
p234
Vae71691cd
p235
tp236
(dp237
g7
g8
(g12
S'\xa6\x02\x00\x00'
p238
tp239
Rp240
sg18
VD-.0.01-(!!9t)(!)()!)(svtss(!!($/K99D87C89AA9AZ
p241
sg20
I48
ss(V26ebd36a0
p242
V3f01ed29d
p243
tp244
(dp245
g7
g8
(g35
S'\x92\x02\x00\x00\x00\x00\x00\x00'
p246
tp247
Rp248
sg18
VD.//./1/(!!9t(((()((tz~s(!!($/K5GG9::48@?9Z
p249
sg20
I52
ss(V26ebd36a0
p250
Vda60e9451
p251
tp252
(dp253
g7
g8
(g35
S'\xa4\x04\x00\x00\x00\x00\x00\x00'
p254
tp255
Rp256
sg18
VD-.1..1/000.//01/./0-,(!!9t((()((!))(((!)()!))!)((()susvztvttzst~suvzt~(!!($/KE76F8?595GJ5E8:4@A8?F:A@A9?9@A8:8A:A8AA@Z
p257
sg20
I156
ss(V895656306
p258
V1b118fb99
p259
tp260
(dp261
g7
g8
(g35
S'\xcd\x02\x00\x00\x00\x00\x00\x00'
p262
tp263
Rp264
sg18
VD-/1011/1(!!9t()!)(()!)(ttsvzvu(!!($/K3J2H31I1?8?A:?:Z
p265
sg20
I67
ss(V969ffa43c
p266
V14adef84f
p267
tp268
(dp269
g7
g8
(g12
S'\x7f\x03\x00\x00'
p270
tp271
Rp272
sg18
VD./1/1./.11.-(!!9t)((!)((()((((ut~tstzstssv(!!($/K3GH42F:GF71BA9?A@?9?:9:9Z
p273
sg20
I94
ss(V895656306
p274
V9e23d8c1d
p275
tp276
(dp277
g7
g8
(g12
S'\x9e\x02\x00\x00'
p278
tp279
Rp280
sg18
VD.10../,(!!9t)!)(((()ztts(!!($/KJ6E79G@8@88Z
p281
sg20
I48
ss(V9f9cff207
p282
Vbf10d4438
p283
tp284
(dp285
g7
g8
(g12
S'\xe8\x03\x00\x00'
p286
tp287
Rp288
sg18
VD,10///./00//1-(!!9t)!)()!)()!))(((!))yztttvz~sztvs(!!($/KCI@1DA6CCK8EBEE?A8?A??A@A8@Z
p289
sg20
I110
ss(Vfc064fc73
p290
V15c244197
p291
tp292
(dp293
g7
g8
(g12
S'\xe3\x04\x00\x00'
p294
tp295
Rp296
sg18
VD/.0011/./1.011..10--(!!9t()!)(()(!)()!))((((((!)(~zvsu~ttstttstuvstsus(!!($/KE1HB1I:26K9HBDG5HKCD@A@8?98@@A?@@:9::9A8AZ
p297
sg20
I160
ss(V969ffa43c
p298
V6935a3a00
p299
tp300
(dp301
g7
g8
(g12
S'\xec\x02\x00\x00'
p302
tp303
Rp304
sg18
VD.01.1...(!!9t)!)(()((!)~ttzst~(!!($/KADA@H38AF8?A?9:Z
p305
sg20
I63
ss(V608890c10
p306
V81abc62c
p307
tp308
(dp309
g7
g8
(g35
S'\x17\x03\x00\x00\x00\x00\x00\x00'
p310
tp311
Rp312
sg18
VD,0.1/010(!!9t)!))((!))!)s~us~usvtu(!!($/KJ:F2GI24:A8?99?::?Z
p313
sg20
I66
ss(V9f9cff207
p314
Vd98732c5f
p315
tp316
(dp317
g7
g8
(g12
S' \x03\x00\x00'
p318
tp319
Rp320
sg18
VD.../11./11(!!9t)!))(((!)()(tzttvtzv(!!($/KK5DH2C6G3G@88:@::?Z
p321
sg20
I80
ss(Ve11621516
p322
V37a860c1e
p323
tp324
(dp325
g7
g8
(g35
S'\xaa\x02\x00\x00\x00\x00\x00\x00'
p326
tp327
Rp328
sg18
VD.01..//1(!!9t((()!)(((tvtt(!!($/K:J677H4@?:?AZ
p329
sg20
I59
ss(V9f9cff207
p330
V6c53f8359
p331
tp332
(dp333
g7
g8
(g12
S'\xd1\x02\x00\x00'
p334
tp335
Rp336
sg18
VD-0/10.0/(!!9t()((!)(((tvtzsss(!!($/K?6:8K96C8?8:998Z
p337
sg20
I62
ss(V9f9cff207
p338
V82884050a
p339
tp340
(dp341
g7
g8
(g12
S'\xf1\x04\x00\x00'
p342
tp343
Rp344
sg18
VD.//001110.11//./11.-(!!9t)((!))!)((()(!))(((!))!)yy)tusvsu~uvsust~ut~zs~ts(!!($/KG2C::1I@K37A7H?2J@BFCE88A9A@9@:?9?9@8998:89?Z
p345
sg20
I170
ss(V969ffa43c
p346
Vb7e737077
p347
tp348
(dp349
g7
g8
(g12
S'\xb5\x02\x00\x00'
p350
tp351
Rp352
sg18
VD11./1/(!!9ty)(((!)(vzt~zs(!!($/K912KK@4?:?@9:Z
p353
sg20
I56
ss(V969ffa43c
p354
V09608811f
p355
tp356
(dp357
g7
g8
(g12
S';\x03\x00\x00'
p358
tp359
Rp360
sg18
VD-1./1.00./(!!9t()(!)()(!))(ytz~u~zvss(!!($/K439B?JG5G3B@8::?AA:@Z
p361
sg20
I80
ss(Vfc064fc73
p362
V462cf2782
p363
tp364
(dp365
g7
g8
(g12
S'\xd0\x02\x00\x00'
p366
tp367
Rp368
sg18
VD-/./01.-(!!9t()!)()(!)~!)~z~z(!!($/KD4A3CDHE8AAAAZ
p369
sg20
I57
ss(V969ffa43c
p370
V740c1d1ab
p371
tp372
(dp373
g7
g8
(g12
S'\x96\x04\x00\x00'
p374
tp375
Rp376
sg18
VD/111.....0/0/./0.(!!9t()!)()!)(()!)(()(!))!)t~sssutsts~z~ssuvszvss(!!($/K?D4DC9?F7E@36F@3KEB8@@8A9??9@9:@@:9988@Z
p377
sg20
I136
ss(V969ffa43c
p378
Vba61cdfae
p379
tp380
(dp381
g7
g8
(g12
S'\xab\x02\x00\x00'
p382
tp383
Rp384
sg18
VD,0100.(!!9t)!)()((yu~stzt(!!($/K@77A7:E9@8889Z
p385
sg20
I52
ss(Vfc064fc73
p386
V4fbafbbb2
p387
tp388
(dp389
g7
g8
(g35
S'a\x03\x00\x00\x00\x00\x00\x00'
p390
tp391
Rp392
sg18
VD.11..111,(!!9t((((()(!)~!)vuvtus~uvssu(!!($/KE3@F4K46E:?9::@?A@?@8AZ
p393
sg20
I76
ss(V895656306
p394
V00f8c21b6
p395
tp396
(dp397
g7
g8
(g12
S's\x05\x00\x00'
p398
tp399
Rp400
sg18
VD,.11///1.01/1./..1/01.-(!!9t)((!))!))(!)((()((!))!))((!)t)sz~uts~szsst~us~uvsz~tz(!!($/KCCGD5GJJF:@G22HF?JD9J:DFAA8?98??:9@@9::???::A@9Z
p401
sg20
I182
ss(Ve11621516
p402
Vfe5b1f578
p403
tp404
(dp405
g7
g8
(g35
S'S\x05\x00\x00\x00\x00\x00\x00'
p406
tp407
Rp408
sg18
VD/0/..0.0//./.01..0/.1./,(!!9t)(!))((!))!))!)()(!))!))(((((t!)ss~tttzsvszvttz~tusss~uv(!!($/KBIF21C2F@8@I3HCG1735FIG@F@88A8AA@:?::@89@88A8@?@9Z
p409
sg20
I181
ss(V895656306
p410
Vdae907dc5
p411
tp412
(dp413
g7
g8
(g12
S'8\x03\x00\x00'
p414
tp415
Rp416
sg18
VD/0100000(!!9t)(!))!)(()tyz~zst~u~(!!($/KJ9?EK?K3BE?:A8@98@Z
p417
sg20
I77
ss(Ve11621516
p418
V221153d19
p419
tp420
(dp421
g7
g8
(g12
S'\x08\x03\x00\x00'
p422
tp423
Rp424
sg18
VD-/100110,(!!9t(((((()(!)vszts~zv(!!($/KE114ACHDB:A9@?A:AZ
p425
sg20
I72
ss(V26ebd36a0
p426
Vf4ece5f97
p427
tp428
(dp429
g7
g8
(g35
S'-\x03\x00\x00\x00\x00\x00\x00'
p430
tp431
Rp432
sg18
VD....10/11(!!9ty((()((((!)~tststuv(!!($/KDEIFBE34J1:AA?:?@9Z
p433
sg20
I74
ss(Ve11621516
p434
V74e0341de
p435
tp436
(dp437
g7
g8
(g12
S'\xdd\x03\x00\x00'
p438
tp439
Rp440
sg18
VD/11110/////.1(!!9t(((()!))!))!))!)(tsss~szvuvszvtt(!!($/K8GEK6F786E3BG@9@8::@@@@A:9??Z
p441
sg20
I111
ss(V969ffa43c
p442
Vea946b76a
p443
tp444
(dp445
g7
g8
(g12
S'q\x03\x00\x00'
p446
tp447
Rp448
sg18
VD/1/.1101..(!!9t)!)(()!)(()!)ts~stzsttssv(!!($/K?DF9I@5:8@C?@9?A@??A9AZ
p449
sg20
I86
ss(V895656306
p450
V16fa72600
p451
tp452
(dp453
g7
g8
(g12
S'_\x05\x00\x00'
p454
tp455
Rp456
sg18
VD-//../.0/..111/1/0///1-(!!9t()(!)()(!))(!))!))!)(()!)()((us~tsutvztvzssvu~suvsus~u(!!($/KAJJFJG9637K:F5HD86DE8K89???8@8A@A989:8:8A88:AA?9Z
p457
sg20
I176
ss(V969ffa43c
p458
Vf98f3743a
p459
tp460
(dp461
g7
g8
(g12
S'\x19\x03\x00\x00'
p462
tp463
Rp464
sg18
VD/0001111(!!9t)!)(()((!)~tszvssusv(!!($/K5BA5J3BGA:A8:@8@9@Z
p465
sg20
I74
ss(V969ffa43c
p466
V6f7122c40
p467
tp468
(dp469
g7
g8
(g35
S'}\x04\x00\x00\x00\x00\x00\x00'
p470
tp471
Rp472
sg18
VD.011//0.//0//////(!!9t)!)((()!)(()!))((!)((tyssttsvzsvsuvtsuts~u~s(!!($/K9J618?719BD9?:AC199A988A:@@:?AA::9:@8?8AZ
p473
sg20
I142
ss(V895656306
p474
V1eb81a7f4
p475
tp476
(dp477
g7
g8
(g12
S'\x88\x04\x00\x00'
p478
tp479
Rp480
sg18
VD,.101/..//00/01./0-(!!9t)(!)(()!))!)()!))!)()!))!)t~usvtttz~zssvu~ss(!!($/KCCHF5HJ4I32C6@GK4C9@?A8?AA8:@:8?@8:99Z
p481
sg20
I145
ss(V9f9cff207
p482
V9430b3dcc
p483
tp484
(dp485
g7
g8
(g12
S'\x80\x03\x00\x00'
p486
tp487
Rp488
sg18
VD10.10.1/111,(!!9ty)!))(!))!)(()(!)yttttttstt~u(!!($/KG1F25FEA397@?9:9:@@:98A:9Z
p489
sg20
I109
ss(V9f9cff207
p490
Vb89495be0
p491
tp492
(dp493
g7
g8
(g35
S'\x03\x05\x00\x00\x00\x00\x00\x00'
p494
tp495
Rp496
sg18
VD//.11/110./000...1/0/,(!!9t)(!)()!)((()!))(!)()!)(()(!)y~utvzt~ttus~ustsvz~zssvt(!!($/KE5154FED8214EEF3JB63@C@B8?@:998A?8AA:8?::??8A?:Z
p497
sg20
I181
ss(Vfc064fc73
p498
V3b684bd8d
p499
tp500
(dp501
g7
g8
(g12
S'\x98\x02\x00\x00'
p502
tp503
Rp504
sg18
VD,.100-(!!9t)!))!)((~u~s(!!($/KHJ2K88A???Z
p505
sg20
I42
ss(V895656306
p506
V1cd14fb6d
p507
tp508
(dp509
g7
g8
(g12
S'\x0f\x04\x00\x00'
p510
tp511
Rp512
sg18
VD./100././/1//./-(!!9t)(!))((((((!))(!))z)u~tzss~ttu~zvzv(!!($/KD8?9E?6296AK5@4F@A?8?:@AA@???9?@Z
p513
sg20
I124
ss(V895656306
p514
V3a89f406b
p515
tp516
(dp517
g7
g8
(g12
S'c\x03\x00\x00'
p518
tp519
Rp520
sg18
VD.//1....100-(!!9t()((((!))(((y!)ttvzsvtutvs(!!($/KB:B48957A539AAA@9?9:A:?9Z
p521
sg20
I92
ss(Vfc064fc73
p522
Vc590d2258
p523
tp524
(dp525
g7
g8
(g12
S'\x05\x04\x00\x00'
p526
tp527
Rp528
sg18
VD,1.11.0...1111/--(!!9t)!))!))!))!))!))!))!)()!)sstt~szt~szvz~s(!!($/K?59C8KCI?947371CD:A?@A@:A8:@?988Z
p529
sg20
I131
ss(V26ebd36a0
p530
V9b7214c5c
p531
tp532
(dp533
g7
g8
(g12
S'6\x03\x00\x00'
p534
tp535
Rp536
sg18
VD.0///1//1(!!9t()((!)()!))zsss~z~us~u(!!($/KDF1381KH:D8@:8:?@@99Z
p537
sg20
I76
ss(Ve11621516
p538
V4ffba2e62
p539
tp540
(dp541
g7
g8
(g12
S'\xcd\x03\x00\x00'
p542
tp543
Rp544
sg18
VD/10.10100..1,(!!9t((()(!)((((((~!)svsusvzs~sstzvt(!!($/K:C6:3A3FEEE2CBAA889::8?:988::Z
p545
sg20
I108
ss(Ve11621516
p546
Vf8fa9080a
p547
tp548
(dp549
g7
g8
(g35
S';\x04\x00\x00\x00\x00\x00\x00'
p550
tp551
Rp552
sg18
VD-11111/10.0/.1(!!9t)!))!)(()!))!))((!)~tysuvtz~stszvzvstt(!!($/KDF@5668DGEC4J:?CFA::8::??:@8@?8@AZ
p553
sg20
I129
ss(V969ffa43c
p554
V29177b9dd
p555
tp556
(dp557
g7
g8
(g12
S'\xa5\x02\x00\x00'
p558
tp559
Rp560
sg18
VD..1..1(!!9t()((!))stszs~(!!($/K5G888B9@:A??Z
p561
sg20
I47
ss(Ve11621516
p562
V748c0fe50
p563
tp564
(dp565
g7
g8
(g35
S'M\x04\x00\x00\x00\x00\x00\x00'
p566
tp567
Rp568
sg18
VD-1/./1100.01/..1(!!9t(()(!))((((((((!))z~zvztvztt~sstutts~s(!!($/KA21:@?C798?A@@@CDDF88?A:@::A8?99A8:8Z
p569
sg20
I138
ss(V969ffa43c
p570
V747db4a16
p571
tp572
(dp573
g7
g8
(g35
S'\x90\x02\x00\x00\x00\x00\x00\x00'
p574
tp575
Rp576
sg18
VD/.11(!!9ty((((vzstvu(!!($/K4E6C9@@9:@8Z
p577
sg20
I40
ss(V9f9cff207
p578
Vd0a3a8326
p579
tp580
(dp581
g7
g8
(g12
S'w\x03\x00\x00'
p582
tp583
Rp584
sg18
VD/0/1/.1000/-(!!9t)!))(((((!))!))stuvtstuttv(!!($/KH4EDA8F4@A4E?AA:98?8?:?Z
p585
sg20
I95
ss(V26ebd36a0
p586
Vd4b6b337a
p587
tp588
(dp589
g7
g8
(g12
S'K\x03\x00\x00'
p590
tp591
Rp592
sg18
VD-/..11/1/(!!9t)!)()!)()!)(ttsttvzts(!!($/K6KGIBDIFEB8A9:@A99Z
p593
sg20
I73
ss(V9f9cff207
p594
V551456d23
p595
tp596
(dp597
g7
g8
(g12
S'\xf1\x04\x00\x00'
p598
tp599
Rp600
sg18
VD/101.0.0/.10..11//00,(!!9t()(((!))!)()(!)((()((!)(t)u~tssttus~ssutt~u~tuvus(!!($/KF:C2B5?5J833FK6K4E72:E8:A@A@9:@899?9A89??8A?AZ
p601
sg20
I171
ss(V969ffa43c
p602
Vde8d1ed00
p603
tp604
(dp605
g7
g8
(g12
S'_\x04\x00\x00'
p606
tp607
Rp608
sg18
VD/000./.0.11.000-(!!9ty)!))!))(!))(!))(!))!))yu~utvutvzvtsszstv(!!($/K@7:@IHJJ5?659HGFD9:9@8A998@@:89989:Z
p609
sg20
I133
ss(Ve11621516
p610
Vf3123d737
p611
tp612
(dp613
g7
g8
(g12
S'\xcc\x04\x00\x00'
p614
tp615
Rp616
sg18
VD-/1.0./../.../01.011,(!!9t()(!)((((((((()(!))((!)y)sztttss~tzvuttvuvsz~(!!($/KCDA2:4?3@H3IH2G@2:CGAC:99::9A:A9:AA::::A:?Z
p617
sg20
I160
ss(Ve11621516
p618
V1c603762d
p619
tp620
(dp621
g7
g8
(g12
S'\xb5\x03\x00\x00'
p622
tp623
Rp624
sg18
VD//.1/01/0/.1(!!9ty)!)((()((!))(!)ts~stsu~utvssz(!!($/KEH7ED83@216:BA@AA:@?8A9AA9AZ
p625
sg20
I103
ss(V26ebd36a0
p626
Ve53fd5ca0
p627
tp628
(dp629
g7
g8
(g12
S'\xaf\x03\x00\x00'
p630
tp631
Rp632
sg18
VD-/0./1/..101-(!!9t()(!)(((()((!)(svtsu~u~zs~z~(!!($/K781E64KJ3CJJA?89@8??9?:@:?Z
p633
sg20
I101
ss(V895656306
p634
Vc03ca8a58
p635
tp636
(dp637
g7
g8
(g12
S'\xb6\x04\x00\x00'
p638
tp639
Rp640
sg18
VD-/.111./111./10.1.1--(!!9t)((!))(!))((((!)()(!))!)((stt~zsvzvtzvzvu~zvus(!!($/KBF6G@58F5?4H7G455?D:DAA?A:@@8::A9:???8AA:Z
p641
sg20
I166
ss(V26ebd36a0
p642
V6c0bf91b6
p643
tp644
(dp645
g7
g8
(g12
S'N\x04\x00\x00'
p646
tp647
Rp648
sg18
VD../0/.0/10/1/.1-(!!9t(()!))!))(((!)()!)()ztstst~sssszvuvuss(!!($/KEJA5FE3H95FE22JA::@9:8?A:?AA?@9A?:Z
p649
sg20
I125
ss(V969ffa43c
p650
V8637c102c
p651
tp652
(dp653
g7
g8
(g35
S'3\x05\x00\x00\x00\x00\x00\x00'
p654
tp655
Rp656
sg18
VD-.1..0//1/.01.//0.//.11,(!!9t((((((((()(!)((()!))(((!)()ytzttvzsts~tz~tzsvssuvzs(!!($/KIKK69A4F@@44C521?D7E1BIE??88@9@A@98@9@9@8A:A8@:AZ
p657
sg20
I186
ss(V9f9cff207
p658
Vfacfdf20c
p659
tp660
(dp661
g7
g72
sg18
VD-/00/11/10//,(!!9t)(!)(()!)()(!)(y)uvszvz~ttzvss(!!($/KD82A73AFBG:9B@??:89@8:A:8@AZ
p662
sg20
I106
ss(V9f9cff207
p663
Vf456e0dd4
p664
tp665
(dp666
g7
g8
(g35
S' \x03\x00\x00\x00\x00\x00\x00'
p667
tp668
Rp669
sg18
VD-.10..110(!!9t((((()(((sszts~uvu(!!($/KGDAEIB2838A?@8@9:AZ
p670
sg20
I71
ss(V895656306
p671
V6f8bc53ac
p672
tp673
(dp674
g7
g8
(g12
S'\xc4\x02\x00\x00'
p675
tp676
Rp677
sg18
VD-/./0.//(!!9t)!)(()((!)vttztt(!!($/K31K2EI3G9@?888Z
p678
sg20
I58
ss(Vfc064fc73
p679
V5e9b2ce77
p680
tp681
(dp682
g7
g8
(g12
S'\xc3\x02\x00\x00'
p683
tp684
Rp685
sg18
VD//.../(!!9t(()((!)sttvsu(!!($/K@FJ9K99A::A:Z
p686
sg20
I43
ss(Vfc064fc73
p687
V23e86c2c6
p688
tp689
(dp690
g7
g8
(g12
S'\xb0\x03\x00\x00'
p691
tp692
Rp693
sg18
VD,0.0.0/1/011,,(!!9t)!))!)((()!))!)()!)stvust~z~tz(!!($/K98CG9FGB@AE:9E9A99?8:?A:@Z
p694
sg20
I103
ss(Vfc064fc73
p695
V6514c71b5
p696
tp697
(dp698
g7
g8
(g35
S'S\x03\x00\x00\x00\x00\x00\x00'
p699
tp700
Rp701
sg18
VD..0101//1/-(!!9t)!))((!)()(!))zsvzsvtstsu~(!!($/K361:ABA21IE8?9989@@8A@AZ
p702
sg20
I89
ss(V26ebd36a0
p703
V49e589774
p704
tp705
(dp706
g7
g8
(g12
S'\x81\x04\x00\x00'
p707
tp708
Rp709
sg18
VD,././0.0./0/.00.1-(!!9t)!))!))!))!)()((!)()((z)ustvus~sstusvszssvsu~u(!!($/K15G79?88@75:C263H8:::?:9:?9:9A:9?@9A:A:AAZ
p710
sg20
I135
ss(V969ffa43c
p711
V8783e65e7
p712
tp713
(dp714
g7
g8
(g12
S'I\x04\x00\x00'
p715
tp716
Rp717
sg18
VD///10000010..1..-(!!9t)(!))!))(!)()(!))(!))y(uvzvus~zt~z~sus~u(!!($/KBE82:77:E1:4IH9D@FA:9?A?:9AA@A98?9:Z
p718
sg20
I138
ss(V5682fe1a0
p719
V8313950c
p720
tp721
(dp722
g7
g8
(g35
S'4\x04\x00\x00\x00\x00\x00\x00'
p723
tp724
Rp725
sg18
VD-0../0/0.0/./.../0-(!!9t((((()(!)(((()((!)()(sz~sszs~ut~zvst(!!($/K51@JK348H4?59JD?J7C98AA99@::@88?A8Z
p726
sg20
I133
ss(Ve11621516
p727
V7662d715d
p728
tp729
(dp730
g7
g8
(g12
S'\xb8\x03\x00\x00'
p731
tp732
Rp733
sg18
VD./.10/00./01(!!9t(()!)((((()(!)tvuvszsvtsz~zst(!!($/KDDAE1J23J?44@:??A?@A9??@8A:Z
p734
sg20
I101
ss(V969ffa43c
p735
V8aecb3e6a
p736
tp737
(dp738
g7
g8
(g12
S'Q\x05\x00\x00'
p739
tp740
Rp741
sg18
VD/00/.00000../0../0..01(!!9t((()!))(!)()((!)()(!))(!))(zys~u~sutt~ustvzttvsusstst(!!($/KIDB16JJG1K2B5F@:K62H:8AE8:@:@??A:?9?A88?8@A@A9?9Z
p742
sg20
I179
ss(V9f9cff207
p743
Vcabc2f29e
p744
tp745
(dp746
g7
g72
sg18
VD-/00/11/10//,(!!9t)(!)(()!)()(!)(y)uvszvz~ttzvss(!!($/KD82A73AFBG:9B@??:89@8:A:8@AZ
p747
sg20
I106
ss(V895656306
p748
V868748a88
p749
tp750
(dp751
g7
g8
(g12
S'B\x03\x00\x00'
p752
tp753
Rp754
sg18
VD-/.0..0001/(!!9t)(!))(!))(!))(tutstt~z~u(!!($/KGCJ86A7:2A3A9?9@:98A:Z
p755
sg20
I86
ss(V895656306
p756
V1dde6e914
p757
tp758
(dp759
g7
g8
(g12
S'\xde\x02\x00\x00'
p760
tp761
Rp762
sg18
VD,/01.1./1(!!9t)!))!))(!)()sz~sut(!!($/KDGB521AD8?A@@??Z
p763
sg20
I67
ss(Vbe061e3a0
p764
V787e2a79
p765
tp766
(dp767
g7
g8
(g35
S'\xe8\x02\x00\x00\x00\x00\x00\x00'
p768
tp769
Rp770
sg18
VD//111./(!!9t()!)()((tztvttzsv(!!($/K:1@5A8ADFA:9:::9Z
p771
sg20
I64
ss(Vfc064fc73
p772
Vd2a3deebf
p773
tp774
(dp775
g7
g8
(g12
S'\xd7\x02\x00\x00'
p776
tp777
Rp778
sg18
VD/.101000(!!9t(()!))!)((ttvsz~ut(!!($/K78D485A2A?:8@::AZ
p779
sg20
I70
ss(Ve11621516
p780
V3413b3f7d
p781
tp782
(dp783
g7
g8
(g12
S'\xc0\x03\x00\x00'
p784
tp785
Rp786
sg18
VD-10100100/(!!9t)!)((()(!)((ttvssuvsz~sutss~(!!($/K8CI95:G5DFBC?A?@@?A:A8?A@8Z
p787
sg20
I93
ss(V26ebd36a0
p788
Vb7193b433
p789
tp790
(dp791
g7
g8
(g12
S'\xf2\x04\x00\x00'
p792
tp793
Rp794
sg18
VD.01.0/00..01110..1//,,-(!!9t(()!)(()!)((()!)()!))!))(!)~!))ssssstz~tzvtttstuvsz~(!!($/K5D99:3AA:3K5B?F2:1FI??FC8A99A8@9A@9A8:@89:@8@Z
p795
sg20
I176
ss(V895656306
p796
V816e9081b
p797
tp798
(dp799
g7
g8
(g12
S'\xe4\x02\x00\x00'
p800
tp801
Rp802
sg18
VD-01100/-(!!9t)(!)()!))(uvu~z~(!!($/KI@:H?7@B?@AA@9Z
p803
sg20
I62
ss(V969ffa43c
p804
Vf94fb8b76
p805
tp806
(dp807
g7
g8
(g12
S'\x13\x03\x00\x00'
p808
tp809
Rp810
sg18
VD,1000/0/01(!!9t)!))!))!))!))(u~ststzts(!!($/KD@E2?C61A2?A:@@899:Z
p811
sg20
I82
ss(V895656306
p812
Vc056f0f61
p813
tp814
(dp815
g7
g8
(g12
S'\xdb\x04\x00\x00'
p816
tp817
Rp818
sg18
VD-1/1./0.0../.0//0.001-,(!!9t)(!)()((!)((()!))!))!))!))!)()uvu~suvtttzssvstzvut~zt(!!($/K9E7H1I9K19564F442@BD689:899@:?9988@A:9@98@:@A8Z
p819
sg20
I173
ss(Ve11621516
p820
V6b1b72875
p821
tp822
(dp823
g7
g8
(g12
S'\xfd\x03\x00\x00'
p824
tp825
Rp826
sg18
VD/.01/010./0/1.(!!9t)!))(!)((()((!))(yttttsusvzs~u~sussv(!!($/K535@38H55C8J2GB88988?9@A8???8??9AZ
p827
sg20
I121
ss(Vfc064fc73
p828
V3bf9b26f2
p829
tp830
(dp831
g7
g8
(g12
S'O\x03\x00\x00'
p832
tp833
Rp834
sg18
VD.0/110./01,(!!9t()((!)(()!)()sstussvz~tu(!!($/KD4:6K9G464E89:@?888:AAZ
p835
sg20
I87
ss(Ve11621516
p836
Vb65ffa4f6
p837
tp838
(dp839
g7
g8
(g35
S'Q\x03\x00\x00\x00\x00\x00\x00'
p840
tp841
Rp842
sg18
VD-00/0.110(!!9t(()((!))((zvtsussssttv(!!($/KK?3962KHCB8A9:A?8@8?8Z
p843
sg20
I77
ss(V26ebd36a0
p844
Ve08968778
p845
tp846
(dp847
g7
g8
(g12
S'\xbe\x04\x00\x00'
p848
tp849
Rp850
sg18
VD/0.//.0.0/1./00/10(!!9t((()!)()(!))(!))!)(()!)tyvzsssttts~tsuvtsus~(!!($/KCIKFFF:J4C4C8D2AACBA8:A:A@:??@8:9?8:9@@Z
p851
sg20
I148
ss(V969ffa43c
p852
Vf27bd9eb4
p853
tp854
(dp855
g7
g8
(g12
S'\xf9\x03\x00\x00'
p856
tp857
Rp858
sg18
VD,1/..0/001.0/..0-(!!9t)!))(!)((()!))!)(((((t~sustts~sz~tu(!!($/K34@JJB2@BD85A9@8:9:@@@99@@9?9A:Z
p859
sg20
I125
ss(V969ffa43c
p860
V7d2654c4a
p861
tp862
(dp863
g7
g8
(g12
S'\xe4\x04\x00\x00'
p864
tp865
Rp866
sg18
VD-.//11/1.//1...111100(!!9t)!))!))!))(!)((((()(!)((()zt~u~z~zstvstuvtsz~ut~sz(!!($/K1G4E3HJ64I8@C4@26J3E1AE??@A98::98:989?@@?8?A8Z
p867
sg20
I178
ss(Ve11621516
p868
V269db5f79
p869
tp870
(dp871
g7
g8
(g12
S'\n\x03\x00\x00'
p872
tp873
Rp874
sg18
VD.10001/0,(!!9t()!))!))!)()sstustttv(!!($/KA82G3D7?F@@:8899??Z
p875
sg20
I73
ss(V9f9cff207
p876
V430cd36c0
p877
tp878
(dp879
g7
g8
(g12
S'\x02\x05\x00\x00'
p880
tp881
Rp882
sg18
VD-0.1../0.1/.0.1.010./.0--(!!9t((((()((!)(()!)((()!))(((!)y)!)t~sztvssz~tus~stut~sszs(!!($/K5746423K24J376:7B158DI2CA?9A8@AA9@?9A8@?@?:A8@?@?Z
p883
sg20
I189
ss(V9f9cff207
p884
V0b2abc0fa
p885
tp886
(dp887
g7
g8
(g35
S'T\x03\x00\x00\x00\x00\x00\x00'
p888
tp889
Rp890
sg18
VD./1..010.-(!!9t)!))!))(!)(((ttstsss~ut(!!($/KEJCDFAH1:D899?89A@8@Z
p891
sg20
I77
ss(Vf1648557e
p892
V7c0ace251
p893
tp894
(dp895
g7
g8
(g35
S'\x8b\x02\x00\x00\x00\x00\x00\x00'
p896
tp897
Rp898
sg18
VD/0./11(!!9t)!)((()tszvu(!!($/KH714B99?@??Z
p899
sg20
I49
ss(V9f9cff207
p900
Va467f158c
p901
tp902
(dp903
g7
g8
(g12
S'\xcf\x02\x00\x00'
p904
tp905
Rp906
sg18
VD/100./1-(!!9t)!))((!))!)~ttut(!!($/K6G::H8KA9:@A:Z
p907
sg20
I62
ss(V96abc5880
p908
Vfad9b7df
p909
tp910
(dp911
g7
g8
(g35
S'\x0e\x05\x00\x00\x00\x00\x00\x00'
p912
tp913
Rp914
sg18
VD,01//.1011//10/00/./(!!9t)!)((((()!))(!))!))(!))((zy~zssttssttt~zvsssustvzv(!!($/K@924:BHHH76I7342IHJJFE?A:@8?@8::8?@A?8989:@89Z
p915
sg20
I171
ss(V9f9cff207
p916
Va1b7a0ef0
p917
tp918
(dp919
g7
g8
(g35
S'\xfa\x03\x00\x00\x00\x00\x00\x00'
p920
tp921
Rp922
sg18
VD-10/.0.1/./0.00-(!!9t)(((((!)()(!)()(!)t)zvzvsus~tstz~u(!!($/KBA?D7ADA4EB88B2@:8?89??A8A88?A@Z
p923
sg20
I122
ss(Vfc064fc73
p924
V6cbe5e879
p925
tp926
(dp927
g7
g8
(g12
S'\xd1\x04\x00\x00'
p928
tp929
Rp930
sg18
VD//1/1/0//././/.00//,-(!!9ty)((((((!))(!)()(!))!)()t!))tz~uvzvuvtttzsvszvsut(!!($/K9338B1463:B8JI?4HD2GC::?:?8?9A9A?A@:998AA@9AZ
p931
sg20
I163
ss(Vfc064fc73
p932
Va63003e9b
p933
tp934
(dp935
g7
g8
(g12
S'd\x03\x00\x00'
p936
tp937
Rp938
sg18
VD.1.1.10.00(!!9t()(!)(((()!)~tszsvszsvu(!!($/KK83EIAAG@98?9:A?@@A9:Z
p939
sg20
I82
ss(V969ffa43c
p940
V8f93a0b20
p941
tp942
(dp943
g7
g8
(g35
S'\xe1\x02\x00\x00\x00\x00\x00\x00'
p944
tp945
Rp946
sg18
VD./01.0.(!!9t()!)()(!)vtsttts(!!($/K@1JJ9D99?A@@AAZ
p947
sg20
I56
ss(Ve11621516
p948
V3d8a3a532
p949
tp950
(dp951
g7
g8
(g12
S'\x15\x05\x00\x00'
p952
tp953
Rp954
sg18
VD-/..0///01/110.///11(!!9t(()!))!))!)()!)()(!))(((!)ytsssvttzssvtuvzvsz~uvz(!!($/K:G72FKHKF8KHA83DHE3B88AAA??A?9:9?9?98?AA:AAZ
p955
sg20
I164
ss(Ve11621516
p956
Vb8f0b5941
p957
tp958
(dp959
g7
g8
(g35
S'\xd9\x04\x00\x00\x00\x00\x00\x00'
p960
tp961
Rp962
sg18
VD/10//..1//000111...1-(!!9t(()!)()((((!)(((()(((!)(~us~tzttvtsu~szsst~(!!($/KF?9JD?BBD6IC@J?K9:J?D988999A8A9A8:@?A988Z
p963
sg20
I167
ss(V969ffa43c
p964
V0d58bf155
p965
tp966
(dp967
g7
g8
(g12
S'\x10\x03\x00\x00'
p968
tp969
Rp970
sg18
VD-/././0.1.-(!!9t)(!))!)()!)(((ts~zsvu~(!!($/K6@A93:5?E2@AA8:9:?@Z
p971
sg20
I75
ss(V9f9cff207
p972
V704ee7e38
p973
tp974
(dp975
g7
g8
(g12
S'\xe0\x02\x00\x00'
p976
tp977
Rp978
sg18
VD/////.0.(!!9t(()(!)(((ytvsszttt(!!($/KJ12@56D5?888A88:9Z
p979
sg20
I65
ss(Vbb258e2b0
p980
Ve5c45285
p981
tp982
(dp983
g7
g8
(g35
S'\xf6\x04\x00\x00\x00\x00\x00\x00'
p984
tp985
Rp986
sg18
VD1..//11./1.0/0.0/./.,-(!!9ty(()!))(!)(((()(!))(((!)()z(ssvtuvu~sz~u~sstzs~utsv(!!($/K485IK94HG7:354GH716258A@89:A8@8A:899:?A@89@@A@@Z
p987
sg20
I170
ss(Ve11621516
p988
V37c4e64f2
p989
tp990
(dp991
g7
g8
(g12
S'"\x03\x00\x00'
p992
tp993
Rp994
sg18
VD///././..(!!9t)!)(()(((!)~szsttts(!!($/KDH3JCF6@JA8A:A8?8Z
p995
sg20
I65
ss(V26ebd36a0
p996
V1bc989d8e
p997
tp998
(dp999
g7
g8
(g35
S'\x18\x03\x00\x00\x00\x00\x00\x00'
p1000
tp1001
Rp1002
sg18
VD-./.0..101(!!9t)!)((((()(!)~u~sz~usv(!!($/KD58B568?E@?@@8@9?89Z
p1003
sg20
I75
ss(V9f9cff207
p1004
V7f07b7c32
p1005
tp1006
(dp1007
g7
g8
(g12
S'\xa8\x03\x00\x00'
p1008
tp1009
Rp1010
sg18
VD/./....1/1..0(!!9t)(((((((!)()!)(y~zvststzs~tut(!!($/K@HCB76FA3C335998?9:@@@A:A?9Z
p1011
sg20
I102
ss(V26ebd36a0
p1012
Vc400b9aec
p1013
tp1014
(dp1015
g7
g8
(g12
S'\xe3\x02\x00\x00'
p1016
tp1017
Rp1018
sg18
VD-0/.0//(!!9t)!))!))!))usvzs~ss(!!($/K?5HBI6@?:8?@8?9Z
p1019
sg20
I53
ss(V9f9cff207
p1020
V4bed94e0b
p1021
tp1022
(dp1023
g7
g8
(g12
S'\xbd\x02\x00\x00'
p1024
tp1025
Rp1026
sg18
VD,./10//0(!!9t)((!))(!)(vuttvz(!!($/K8AH1:1:8:A@@@8Z
p1027
sg20
I59
ss(V26ebd36a0
p1028
Va1d5d04b8
p1029
tp1030
(dp1031
g7
g8
(g35
S'\xc5\x04\x00\x00\x00\x00\x00\x00'
p1032
tp1033
Rp1034
sg18
VD/00//01.1110/1./0/1,,-(!!9t)!))!))!)()!))(((((((!)()!)t(vu~tzvu~tzvu~ztss~tu(!!($/K357849I:733J9BEI?888BD:9A??8??A@:9:88AA?A?@Z
p1035
sg20
I174
ss(V9f9cff207
p1036
V34c316f86
p1037
tp1038
(dp1039
g7
g8
(g12
S'S\x04\x00\x00'
p1040
tp1041
Rp1042
sg18
VD/01.101011011/.1(!!9t)(!))((!)(()((!)()!)yt~suttvuvtsusvz~tz(!!($/K7DC13F8DDFD7A997C@:?A@A:?AA8:@?8A?@Z
p1043
sg20
I146
ss(V26ebd36a0
p1044
V6d94f4868
p1045
tp1046
(dp1047
g7
g8
(g12
S'\xba\x02\x00\x00'
p1048
tp1049
Rp1050
sg18
VD,/1/00(!!9t)!)()(!)ttvutss(!!($/K?:G9?::A88A?9Z
p1051
sg20
I49
ss(V895656306
p1052
V5def3fff2
p1053
tp1054
(dp1055
g7
g8
(g12
S'c\x02\x00\x00'
p1056
tp1057
Rp1058
sg18
VD.//..0(!!9t)(!))(!)ss~(!!($/KI187:8:99Z
p1059
sg20
I40
ss(V9f9cff207
p1060
V24cd3fddd
p1061
tp1062
(dp1063
g7
g8
(g12
S'\x12\x04\x00\x00'
p1064
tp1065
Rp1066
sg18
VD/00/0000/0../1-(!!9t()((!))!))!)()(!))z)tzvuvtssstsztvu(!!($/K5HC:DCCE1A@2BKE8A?8@?::@88A:9@:Z
p1067
sg20
I120
ss(Ve11621516
p1068
Vd80c16333
p1069
tp1070
(dp1071
g7
g8
(g35
S'.\x03\x00\x00\x00\x00\x00\x00'
p1072
tp1073
Rp1074
sg18
VD..010./0./(!!9t()!)()!)(()!)ysvsttz~t(!!($/KJ9CC:36B6K@?:8?9A?8Z
p1075
sg20
I79
ss(V26ebd36a0
p1076
V50cf67a60
p1077
tp1078
(dp1079
g7
g786
sg18
VD-10100100/(!!9t)!)((()(!)((ttvssuvsz~sutss~(!!($/K8CI95:G5DFBC?A?@@?A:A8?A@8Z
p1080
sg20
I93
ss(V26ebd36a0
p1081
V6d595bdd8
p1082
tp1083
(dp1084
g7
g8
(g12
S':\x04\x00\x00'
p1085
tp1086
Rp1087
sg18
VD,./100.010.1//-(!!9t)(!)(((()!))!)(()!)yvutttsttssvutsvz(!!($/K?@KD8H?JB93BJ@@9@A99??9A@:A:9A:?Z
p1088
sg20
I120
ss(V895656306
p1089
Vf5dbdf2c7
p1090
tp1091
(dp1092
g7
g8
(g12
S't\x03\x00\x00'
p1093
tp1094
Rp1095
sg18
VD-./..10/.(!!9t()!)((((()ttssszvussssv(!!($/KBAAF8H3CDDAA?8?88@@8A@Z
p1096
sg20
I69
ss(V9f60a44d0
p1097
Vda02d0f7
p1098
tp1099
(dp1100
g7
g8
(g35
S'\xd8\x04\x00\x00\x00\x00\x00\x00'
p1101
tp1102
Rp1103
sg18
VD-.1../0/101/10011.1(!!9t()!)((()((((!))!)(()((tssssztsvuvtsssustssvuvttu(!!($/K167@3AK16:75K392H6DB9?9A9@AAA9?999:A@99@@?@@@Z
p1104
sg20
I161
ss(Vaf0d8ef2d
p1105
V36ff0dcf9
p1106
tp1107
(dp1108
g7
g8
(g35
S't\x04\x00\x00\x00\x00\x00\x00'
p1109
tp1110
Rp1111
sg18
VD-0./001.0/01/0/0.,(!!9t)!)((((((((((()((!))sust~uvzsst~ststusvsu(!!($/KGDJ8AD2154GK4356C?:9?A8?8@89:??A8A?8989Z
p1112
sg20
I141
ss(V895656306
p1113
V6905c05f3
p1114
tp1115
(dp1116
g7
g8
(g12
S'\x88\x03\x00\x00'
p1117
tp1118
Rp1119
sg18
VD//1....01001/(!!9t(((((((()((!)(ttvtzt~tzt~su(!!($/K9385KC12:97J2A:8A8A@8?9A?@Z
p1120
sg20
I108
ss(Vfc064fc73
p1121
V841d6d9f6
p1122
tp1123
(dp1124
g7
g8
(g12
S'\x82\x02\x00\x00'
p1125
tp1126
Rp1127
sg18
VD../11(!!9t(()!))tzst~(!!($/K8@?4H:?:A8Z
p1128
sg20
I43
ss(V969ffa43c
p1129
V99d2aa1c2
p1130
tp1131
(dp1132
g7
g8
(g12
S'\xff\x04\x00\x00'
p1133
tp1134
Rp1135
sg18
VD./10/010/1.1.01.1/11--(!!9t)(((((!)(()!)((((()!))(!)~(tuvtszt~ztt~tstu~tutt(!!($/KIIH:8K7K1?AC7?1EB73ADDD8?9899@?::9A::A@89@9:Z
p1136
sg20
I184
ss(V895656306
p1137
Vf95acb33e
p1138
tp1139
(dp1140
g7
g8
(g12
S'\xe7\x02\x00\x00'
p1141
tp1142
Rp1143
sg18
VD/10./111(!!9t(()!))!))(u~suttvz(!!($/K36HH1D3BA:8:89@AZ
p1144
sg20
I70
ss(V8d3bc3f60
p1145
Vb519ae43
p1146
tp1147
(dp1148
g7
g8
(g35
S'\xfe\x04\x00\x00\x00\x00\x00\x00'
p1149
tp1150
Rp1151
sg18
VD/1.00/10/10.01///0/,(!!9t()(!)()!)(((()(!))((!))!)svsu~sztvttttu~usssvust(!!($/KKDI?69C4CH@@49AJFH78??A::9:?::@:8@9:@A?8@A@Z
p1152
sg20
I163
ss(V9f9cff207
p1153
V9053d9bc4
p1154
tp1155
(dp1156
g7
g8
(g35
S'^\x05\x00\x00\x00\x00\x00\x00'
p1157
tp1158
Rp1159
sg18
VD//10./.00.1/0./11./0//(!!9t)((((((!)((()!)(((()(!))!)tt~uvtsuss~tzvssuvz~sstztvz~(!!($/KBKI7G@246H:CC3G9H2H5E3?:E?A88::A9?9@@:AA889998A8:?Z
p1160
sg20
I184
ss(V26ebd36a0
p1161
Vd59c5be92
p1162
tp1163
(dp1164
g7
g8
(g12
S'\xf2\x04\x00\x00'
p1165
tp1166
Rp1167
sg18
VD.0./00/10.111111./0/--(!!9t)!)(((()(((((!))!))!)((()(ttut~uvutsts~z~uttvtzs~(!!($/K?5@FA95AC2BB398E@:D7@A@?8@@A:A?9AA9:89::A:?:?Z
p1168
sg20
I182
ss(V9f9cff207
p1169
V9f6cfe44a
p1170
tp1171
(dp1172
g7
g8
(g12
S'\x97\x02\x00\x00'
p1173
tp1174
Rp1175
sg18
VD//0.1/(!!9t)!)()((tttt(!!($/KIIE34DA9@@Z
p1176
sg20
I48
ss(V895656306
p1177
V3cd93b483
p1178
tp1179
(dp1180
g7
g1074
sg18
VD..010./0./(!!9t()!)()!)(()!)ysvsttz~t(!!($/KJ9CC:36B6K@?:8?9A?8Z
p1181
sg20
I79
ss(V969ffa43c
p1182
V1da642cb8
p1183
tp1184
(dp1185
g7
g8
(g35
S'\xf6\x03\x00\x00\x00\x00\x00\x00'
p1186
tp1187
Rp1188
sg18
VD///1/1...////./--(!!9t((((((((()!)()(!))(tu~ttzss~szsss(!!($/K3K4?43?@38CHC2IBF:@:@8@88::@@:?Z
p1189
sg20
I121
ss(V9f9cff207
p1190
Vaca0354a7
p1191
tp1192
(dp1193
g7
g1175
sg18
VD//0.1/(!!9t)!)()((tttt(!!($/KIIE34DA9@@Z
p1194
sg20
I48
ss(V9f9cff207
p1195
Va05acfac8
p1196
tp1197
(dp1198
g7
g8
(g35
S'\xe5\x02\x00\x00\x00\x00\x00\x00'
p1199
tp1200
Rp1201
sg18
VD.00/0./1(!!9t)(!)()(((ttszss(!!($/K?:BC?EI@@A8A@9Z
p1202
sg20
I62
ss(V969ffa43c
p1203
V899e50489
p1204
tp1205
(dp1206
g7
g8
(g35
S'\x9c\x02\x00\x00\x00\x00\x00\x00'
p1207
tp1208
Rp1209
sg18
VD.11.1/(!!9t)!))(!))ztts~s(!!($/K?J93A1?89?:?Z
p1210
sg20
I52
ss(V9f9cff207
p1211
Vb4dba0fbd
p1212
tp1213
(dp1214
g7
g8
(g12
S'&\x05\x00\x00'
p1215
tp1216
Rp1217
sg18
VD.0/1101.1./..0//./10.0-(!!9t()((((!))!))!)((()!))(((!)(y(~ustvztss~ust~u~tsssz~u(!!($/KB9:B636E8IK94@8A39KA7DBD:@9:?9AA9?9A8@A?98@AA:8Z
p1218
sg20
I183
ss(V895656306
p1219
Va2d832089
p1220
tp1221
(dp1222
g7
g8
(g35
S'+\x03\x00\x00\x00\x00\x00\x00'
p1223
tp1224
Rp1225
sg18
VD../0..1.01(!!9t)!))!)(((()!)~stsuvtsuvt(!!($/K45D?1@6@E4?@89:::8???Z
p1226
sg20
I78
ss(V26ebd36a0
p1227
V23826e0de
p1228
tp1229
(dp1230
g7
g8
(g12
S'\x88\x03\x00\x00'
p1231
tp1232
Rp1233
sg18
VD1//..10./.0-(!!9ty()(!))((!))((!)vsuvut~su~t(!!($/KC58:B3H9CFAAC8A:AA:98::9Z
p1234
sg20
I92
ss(V969ffa43c
p1235
Vfdf56d553
p1236
tp1237
(dp1238
g7
g8
(g12
S'\xc6\x04\x00\x00'
p1239
tp1240
Rp1241
sg18
VD.01/./1..0.0.../100(!!9t)!)(()((!))!))(!))(!)()!)~ysssttusttssstvsstztss(!!($/KAG23A::9C4GF3G@GBI29E:9:8@@989@@??8:89?@A8Z
p1242
sg20
I153
ss(Vfc064fc73
p1243
Vc1f3ce1ea
p1244
tp1245
(dp1246
g7
g8
(g12
S'!\x03\x00\x00'
p1247
tp1248
Rp1249
sg18
VD/110/001-(!!9t)((!))!))!))ssszvstssz~(!!($/K1?1?3A:KD8?8:8A89:9AZ
p1250
sg20
I78
ss(V9f9cff207
p1251
Va38657568
p1252
tp1253
(dp1254
g7
g8
(g12
S'\xfe\x03\x00\x00'
p1255
tp1256
Rp1257
sg18
VD/0.1/.1./01..100--(!!9t)!))((!))((!)()!)()(!)(t~sztvtut~z~u~(!!($/K9BB::?2C232J6J8F@89A::@??9:8:@::Z
p1258
sg20
I137
ss(V969ffa43c
p1259
Vd31dac343
p1260
tp1261
(dp1262
g7
g8
(g12
S'j\x04\x00\x00'
p1263
tp1264
Rp1265
sg18
VD-00101.0.//11/1./-(!!9t)(!))!))!)()(!))!))((!)t)z~u~uttvsuttsssssts(!!($/K9@DC:?35JF8D1?G19A9:?998:A98:9??9???A8Z
p1266
sg20
I146
ss(Ve11621516
p1267
Vd6ba1d1b3
p1268
tp1269
(dp1270
g7
g8
(g12
S'\xe2\x02\x00\x00'
p1271
tp1272
Rp1273
sg18
VD-1000./(!!9t()(((!))ztvtzts~(!!($/KEH4I?:2@@8?9?9?Z
p1274
sg20
I60
ss(V969ffa43c
p1275
V7b7f66509
p1276
tp1277
(dp1278
g7
g8
(g12
S'D\x03\x00\x00'
p1279
tp1280
Rp1281
sg18
VD//1./1./.(!!9t)!)(()((!)(ytt~ssu~tus(!!($/K2E8@C8E8KE??8A?@8:8@Z
p1282
sg20
I75
ss(Vfc064fc73
p1283
Vb176dd9f7
p1284
tp1285
(dp1286
g7
g8
(g35
S'\xd2\x02\x00\x00\x00\x00\x00\x00'
p1287
tp1288
Rp1289
sg18
VD..1/...(!!9t(((((((~ut~tz(!!($/KDAGGC5H:9:?:9Z
p1290
sg20
I52
ss(V9f9cff207
p1291
V678f437f0
p1292
tp1293
(dp1294
g7
g17
sg18
VD0/0..001(!!9ty(()((!)()ttzt~z(!!($/KCIF3EHE91:??8@@Z
p1295
sg20
I69
ss(V895656306
p1296
V12398010a
p1297
tp1298
(dp1299
g7
g8
(g12
S'B\x03\x00\x00'
p1300
tp1301
Rp1302
sg18
VD.0.11/.00-(!!9t)!)()!))!))(y(stz~u~us(!!($/K5IKH:F996?B@?AA:8:AZ
p1303
sg20
I79
ss(V00ecdd350
p1304
Vf4dd1a0c3
p1305
tp1306
(dp1307
g7
g8
(g35
S'J\x04\x00\x00\x00\x00\x00\x00'
p1308
tp1309
Rp1310
sg18
VD.10.//1//.1.0.//-(!!9t((((((((()!)()(((t!)vsustvu~stz~sz~(!!($/KHKF?6:B1:B8FB8DK9F??A8?@8:A?@A9?8Z
p1311
sg20
I129
ss(Vfda56fc90
p1312
V28ca3584
p1313
tp1314
(dp1315
g7
g8
(g35
S'\x8e\x02\x00\x00\x00\x00\x00\x00'
p1316
tp1317
Rp1318
sg18
VD./..1(!!9t)(!))(tzsvu(!!($/K:9CA@A?@A?Z
p1319
sg20
I39
ss(V895656306
p1320
V1083931b4
p1321
tp1322
(dp1323
g7
g8
(g12
S'b\x04\x00\x00'
p1324
tp1325
Rp1326
sg18
VD/0./00.110.//..0(!!9t(()!)((()((!))((!))yz~us~ut~ssttzttvtts(!!($/KCK842EKC4:2JDCD4B9CA?99:99:@98@?@9:8Z
p1327
sg20
I136
ss(V26ebd36a0
p1328
V2f9dee710
p1329
tp1330
(dp1331
g7
g8
(g12
S'v\x03\x00\x00'
p1332
tp1333
Rp1334
sg18
VD./1.111.-(!!9ty(()!)((()!)svuvu~tu~su(!!($/K:B9HDGF@EBA9:9@:@@AA@Z
p1335
sg20
I76
ss(V26ebd36a0
p1336
Vbd08b7f45
p1337
tp1338
(dp1339
g7
g8
(g12
S'\xfe\x04\x00\x00'
p1340
tp1341
Rp1342
sg18
VD./1/010/1/11..1/.010-,(!!9t)!))(!))(!)(()(((!)((()!)()yzvszstvtu~tustvusvutvsutv(!!($/K?287B@@:29A4HIBF571J@::899888:99A?@88??8?8@888:8Z
p1343
sg20
I180
ss(Vfc064fc73
p1344
Vdd00567df
p1345
tp1346
(dp1347
g7
g8
(g12
S'x\x02\x00\x00'
p1348
tp1349
Rp1350
sg18
VD0//1.(!!9ty()(((zsvt(!!($/K9GD4499999Z
p1351
sg20
I43
ss(Ve11621516
p1352
Vb7cb0f37d
p1353
tp1354
(dp1355
g7
g8
(g12
S'\x9f\x03\x00\x00'
p1356
tp1357
Rp1358
sg18
VD/.1./00./110-(!!9t()(!))!))(((((!)t~tsztvtuvutv(!!($/K1C:?5FA32FKB?@@9@888:A?8@AZ
p1359
sg20
I104
ss(V2c87d0410
p1360
V8b32b88b
p1361
tp1362
(dp1363
g7
g8
(g35
S'\xac\x03\x00\x00\x00\x00\x00\x00'
p1364
tp1365
Rp1366
sg18
VD/11.1//.0/1/--(!!9t)(!))!)()(!))(!)((ssttttss~ust(!!($/KE2:AAG::4@4JBB@88A@@:?@9??Z
p1367
sg20
I107
ss(V895656306
p1368
V1d8a6e03d
p1369
tp1370
(dp1371
g7
g8
(g12
S'x\x04\x00\x00'
p1372
tp1373
Rp1374
sg18
VD..//..0....1..0/.,-(!!9ty)(((!)()!))((((!))!)()!)tsvsttsstzvzsvtuv(!!($/K:B92FB4K69?J::IK8AA:9?99:A@9989:A??98Z
p1375
sg20
I131
ss(Ve6e7e0440
p1376
V86ce62f10
p1377
tp1378
(dp1379
g7
g8
(g35
S'n\x04\x00\x00\x00\x00\x00\x00'
p1380
tp1381
Rp1382
sg18
VD.1.1..11.//..0/1.(!!9t)(!))!))!))!)((((((()z~tztvzsvu~utt~u~ts(!!($/K:69AI688@CH?JB:BB@DA89@8899:@@@:?9A?Z
p1383
sg20
I138
ss(Ve11621516
p1384
V933ad6413
p1385
tp1386
(dp1387
g7
g8
(g35
S'\xd5\x03\x00\x00\x00\x00\x00\x00'
p1388
tp1389
Rp1390
sg18
VD/.01./1.01./-,(!!9ty(()!))((((!))!))!)sstss~suvzts~s(!!($/KEI79:II93611BED89?8:?:A8?A@88Z
p1391
sg20
I107
ss(Vfc064fc73
p1392
Vaff96a5d3
p1393
tp1394
(dp1395
g7
g8
(g12
S'\xc3\x04\x00\x00'
p1396
tp1397
Rp1398
sg18
VD,1/0...0..00000//0.1-(!!9t)!))((!))!))!))!)()(((((!)(s~tztsvuvssuvtsuvtzt(!!($/KK75G?:D2H?EH1?:6J61DD??@@AA8:8AA@9A?99A98Z
p1399
sg20
I157
ss(Ve11621516
p1400
Vf09f2cfce
p1401
tp1402
(dp1403
g7
g8
(g12
S'\x01\x03\x00\x00'
p1404
tp1405
Rp1406
sg18
VD./10.0.(!!9ty()!)((()tstutsstsv(!!($/K5E3455H?E99:@9A::9Z
p1407
sg20
I62
ss(Vfc064fc73
p1408
V295fdd1bf
p1409
tp1410
(dp1411
g7
g8
(g12
S'\xc5\x02\x00\x00'
p1412
tp1413
Rp1414
sg18
VD0..00.10(!!9ty)(!))(((!)ttttst(!!($/K@:4@155?I::99::Z
p1415
sg20
I67
ss(V895656306
p1416
V8864b5941
p1417
tp1418
(dp1419
g7
g8
(g12
S'\x18\x03\x00\x00'
p1420
tp1421
Rp1422
sg18
VD0.000101(!!9ty(((()!)()u~zvztvuss(!!($/KF6EA53:68?9@??A?9:?Z
p1423
sg20
I75
ss(Vfc064fc73
p1424
V26e91a53c
p1425
tp1426
(dp1427
g7
g8
(g12
S'\xbf\x03\x00\x00'
p1428
tp1429
Rp1430
sg18
VD//0.0/0/1...0,(!!9t)!)(((((()!)((()sstutvz~suvztv(!!($/KGD253569ID38I:A?9A?A8A@89:A?Z
p1431
sg20
I105
ss(V9f9cff207
p1432
V9eaf75e0b
p1433
tp1434
(dp1435
g7
g8
(g12
S"'\x03\x00\x00"
p1436
tp1437
Rp1438
sg18
VD-/0/0.00/(!!9t)((((((((zvutvsttt(!!($/KGA8HHI56B8???:@8:9Z
p1439
sg20
I71
ss(V7fe325b10
p1440
V85588418
p1441
tp1442
(dp1443
g7
g8
(g35
S'\xd9\x02\x00\x00\x00\x00\x00\x00'
p1444
tp1445
Rp1446
sg18
VD/10100.1(!!9t)!)(()!)()zt~tzv(!!($/KEH5BJ94@?9A@99Z
p1447
sg20
I69
ss(V895656306
p1448
V4d9ed4430
p1449
tp1450
(dp1451
g7
g8
(g12
S'!\x03\x00\x00'
p1452
tp1453
Rp1454
sg18
VD/0//1///(!!9t)((!))!)((~uvzsttts(!!($/KHIK56F5EBA@?8????Z
p1455
sg20
I67
ss(V465d1b9c4
p1456
V8aa5ce7dd
p1457
tp1458
(dp1459
g7
g8
(g35
S'\xe8\x03\x00\x00\x00\x00\x00\x00'
p1460
tp1461
Rp1462
sg18
VD0..1111110/0-(!!9ty(((((((()(!)()suvsszsvtsssuvsz(!!($/KG7C51JCD39@46E??8@A99A?8?:?A@@Z
p1463
sg20
I113
ss(V969ffa43c
p1464
Ve72605abb
p1465
tp1466
(dp1467
g7
g8
(g12
S'\xb5\x02\x00\x00'
p1468
tp1469
Rp1470
sg18
VD..10../,(!!9t()!))(((!)ttss~(!!($/K:97H5E1A@A:::Z
p1471
sg20
I54
ss(V75b6b2880
p1472
Vc03b5d9b
p1473
tp1474
(dp1475
g7
g8
(g35
S'\x99\x04\x00\x00\x00\x00\x00\x00'
p1476
tp1477
Rp1478
sg18
VD-.0/1.11110.11.10-(!!9t(()!))((!))!))!)(((()!)~z~tzttttsstvuss~ttsu(!!($/K2H5@6H44JBKD5J628B9@@A@8?A8A@@??@8@A::@Z
p1479
sg20
I155
ss(Vfc064fc73
p1480
V364af61be
p1481
tp1482
(dp1483
g7
g8
(g12
S'\x80\x04\x00\x00'
p1484
tp1485
Rp1486
sg18
VD-.00010/00./01./0.-(!!9t(()!)((()!)()((!)()(!)t(vtsszttvtuvutttsts(!!($/KFFD:7?AA884DCE?D538:9AA98A@8:::AA:A@99Z
p1487
sg20
I149
ss(V969ffa43c
p1488
V02d08ae0a
p1489
tp1490
(dp1491
g7
g8
(g12
S'C\x04\x00\x00'
p1492
tp1493
Rp1494
sg18
VD0.01/000/1001/.(!!9ty()(!))!)()(((!)()!)t~ut~uvtsu~sus~tztv(!!($/KB62G523I5B936IIDC@9:?@:@9@?@:9@AA9AZ
p1495
sg20
I135
ss(V9f9cff207
p1496
Vb51220e55
p1497
tp1498
(dp1499
g7
g8
(g35
S'\x00\x05\x00\x00\x00\x00\x00\x00'
p1500
tp1501
Rp1502
sg18
VD/101//./11/100..10(!!9t()((((!))(((!))(((!)(ts~u~tzvzvutvtssuvzvzvu(!!($/KJ2G6DI4G5JBJ?KJEBKC?@:?A889:?@?@A??8?98A9Z
p1503
sg20
I156
ss(Vfc064fc73
p1504
Vfc6f76406
p1505
tp1506
(dp1507
g7
g8
(g12
S'\xf1\x04\x00\x00'
p1508
tp1509
Rp1510
sg18
VD-...0/0///0/10/1.1..1--(!!9t()!))(((!))((!))(((!)((((()tzvszts~tstzvutvsttu(!!($/K8:J8DCGJE@1:G4A2J9H76E@@:?9A9:?9:@A:?8:8?@9Z
p1511
sg20
I171
ss(V969ffa43c
p1512
V7ea9fb4c9
p1513
tp1514
(dp1515
g7
g8
(g35
S'\xae\x04\x00\x00\x00\x00\x00\x00'
p1516
tp1517
Rp1518
sg18
VD-/000.0/0../..0./110--(!!9t)!)((()!))!))(((((!)(()!)t)(szt~sttz~us~zstvzv(!!($/KE?@CI3E5?484J5651JD1F@BA:A@:?@A::A8?99?8AZ
p1519
sg20
I164
ss(V26ebd36a0
p1520
Vb9db95fcf
p1521
tp1522
(dp1523
g7
g8
(g12
S'\xed\x04\x00\x00'
p1524
tp1525
Rp1526
sg18
VD-//00.//1//0././0/0..-(!!9t)!)()(!)()(((!))((!)()(!))z(vsutsts~ssztvust~zstts(!!($/KAE31J:9CDC489I8CDB841A?A:9A9AA9@8@A8@:?89899:Z
p1527
sg20
I166
ss(V26ebd36a0
p1528
Vcef3a816a
p1529
tp1530
(dp1531
g7
g8
(g12
S'h\x05\x00\x00'
p1532
tp1533
Rp1534
sg18
VD/0/...1..//..1/01//.000,-(!!9t(()((((!))!))!)()((!))((((!))(sustsvuts~z~tzsvuvttuvss(!!($/K?JC15E1A58B1DKFF9CFCD?H?EA8@89:AA?:A:99A9A8@:@:A8Z
p1535
sg20
I183
ss(V969ffa43c
p1536
Vea0d5b912
p1537
tp1538
(dp1539
g7
g1265
sg18
VD-00101.0.//11/1./-(!!9t)(!))!))!)()(!))!))((!)t)z~u~uttvsuttsssssts(!!($/K9@DC:?35JF8D1?G19A9:?998:A98:9??9???A8Z
p1540
sg20
I146
ss(Ve11621516
p1541
V3113cd538
p1542
tp1543
(dp1544
g7
g8
(g12
S'\xbe\x03\x00\x00'
p1545
tp1546
Rp1547
sg18
VD-00111//0/.0(!!9t()(((!)(()!))!)t~us~zvttszstst(!!($/KH3I?2?K51EJF98:A:A9:A89:8?9Z
p1548
sg20
I105
ss(Vd7a70eb60
p1549
V59c67c45
p1550
tp1551
(dp1552
g7
g8
(g35
S',\x03\x00\x00\x00\x00\x00\x00'
p1553
tp1554
Rp1555
sg18
VD..././//(!!9ty(()!))!)((ttvzss~sts(!!($/KJBGC@??57E9?@889888Z
p1556
sg20
I64
ss(Vfc064fc73
p1557
Vb2ac2cfcb
p1558
tp1559
(dp1560
g7
g8
(g12
S'L\x03\x00\x00'
p1561
tp1562
Rp1563
sg18
VD./00//11//,(!!9t)!)(()!)()!)(~!)t~uvtstz~z(!!($/KA8462FFC5D?9?:9A@?888:Z
p1564
sg20
I89
ss(Ve11621516
p1565
V39ab0d0b6
p1566
tp1567
(dp1568
g7
g8
(g12
S'\xdf\x02\x00\x00'
p1569
tp1570
Rp1571
sg18
VD/..0../1,(!!9t)!)()((((!)~zs~zs(!!($/K4EC423:IEA@AAA8Z
p1572
sg20
I62
ss(V969ffa43c
p1573
Ve3e430d53
p1574
tp1575
(dp1576
g7
g8
(g12
S'\xce\x02\x00\x00'
p1577
tp1578
Rp1579
sg18
VD..0/..(!!9t)!)(()!)yvszts(!!($/KBJFFH2F??:A@Z
p1580
sg20
I45
ss(Ve11621516
p1581
V81fdfc5fc
p1582
tp1583
(dp1584
g7
g8
(g12
S'\xcc\x04\x00\x00'
p1585
tp1586
Rp1587
sg18
VD.1111//./0000/1../1,(!!9t((()(((!)(()(!)()((!))!)ts~stsuvttztt~tu~tuv(!!($/K5?9K7JK8G1I276G3KF8:A@@@9A@A@@A@@@A@9:@AZ
p1588
sg20
I163
ss(V895656306
p1589
V4dc35fd99
p1590
tp1591
(dp1592
g7
g8
(g12
S'\x81\x02\x00\x00'
p1593
tp1594
Rp1595
sg18
VD-.100(!!9t)!))!)(s~uvs(!!($/KE?3B?@?999Z
p1596
sg20
I39
ss(Ve0ebde8a0
p1597
Vb6224793
p1598
tp1599
(dp1600
g7
g8
(g35
S'\xd4\x02\x00\x00\x00\x00\x00\x00'
p1601
tp1602
Rp1603
sg18
VD-000/11(!!9t(()!))((zvtuvzt(!!($/KJ3G84K2AA:@?:?Z
p1604
sg20
I60
ss(Ve11621516
p1605
V4a1fa9b19
p1606
tp1607
(dp1608
g7
g8
(g35
S'X\x03\x00\x00\x00\x00\x00\x00'
p1609
tp1610
Rp1611
sg18
VD-11.0///.(!!9t(()(!))!))!)vsusvzvu~sus(!!($/KA:JC71G8H@8A89@9?A@??Z
p1612
sg20
I71
ss(V26ebd36a0
p1613
Vf78224b60
p1614
tp1615
(dp1616
g7
g8
(g12
S'\x87\x02\x00\x00'
p1617
tp1618
Rp1619
sg18
VD-./11-(!!9t)(!))((sssz(!!($/K:BA@9?9@??Z
p1620
sg20
I42
ss(Vb30fd2d60
p1621
V6fbbfbb5a
p1622
tp1623
(dp1624
g7
g8
(g35
S'\x14\x03\x00\x00\x00\x00\x00\x00'
p1625
tp1626
Rp1627
sg18
VD..1.1/10(!!9ty((((()!))uvsuvuvttu(!!($/K5A7BE::@48989:@@89AZ
p1628
sg20
I69
ss(Ve11621516
p1629
Vc11beb56c
p1630
tp1631
(dp1632
g7
g8
(g12
S'\x15\x05\x00\x00'
p1633
tp1634
Rp1635
sg18
VD.00.0/..//0010.0/101/1,(!!9t()!))((!))(((!))!))(((!))!))!)~ttusvsz~uvsuvtzttt~tz(!!($/KGH5FG4IB84ACJ@:I227I1CB:?@@A@8?88@::8A@9A::??Z
p1636
sg20
I183
ss(V969ffa43c
p1637
V3cdd2d2a6
p1638
tp1639
(dp1640
g7
g8
(g35
S'\xef\x03\x00\x00\x00\x00\x00\x00'
p1641
tp1642
Rp1643
sg18
VD././0//.01/10-,(!!9t()((!)()(!)()((!))u~usst~u~tzvt(!!($/KBJJEI@71K:12ID@?A?9:A9:@?A:AZ
p1644
sg20
I111
ss(Ve11621516
p1645
V5bc93b6b9
p1646
tp1647
(dp1648
g7
g8
(g12
S'\x90\x02\x00\x00'
p1649
tp1650
Rp1651
sg18
VD/00./1(!!9t()!))!)(tst~zv(!!($/K816?2H::A989Z
p1652
sg20
I51
ss(V969ffa43c
p1653
Vb1b64efef
p1654
tp1655
(dp1656
g7
g8
(g12
S'\xd9\x04\x00\x00'
p1657
tp1658
Rp1659
sg18
VD//0/.110./00/./.11-(!!9t((((((((((((((()(!)~!)~us~su~tuvzvu~ssuvu~ssz(!!($/K@EE12BIBH2:@4J7?BD8@89@@:::?A:A8@889??:?A9?Z
p1660
sg20
I155
ss(Ve11621516
p1661
Vcebddbb5a
p1662
tp1663
(dp1664
g7
g8
(g35
S'\x0c\x03\x00\x00\x00\x00\x00\x00'
p1665
tp1666
Rp1667
sg18
VD/100011.1(!!9t)!)()!))(((zt~utt~tu(!!($/K51HED3B4IA?:8A8889Z
p1668
sg20
I82
ss(Vfc064fc73
p1669
V280c144b4
p1670
tp1671
(dp1672
g7
g8
(g12
S'\xd4\x03\x00\x00'
p1673
tp1674
Rp1675
sg18
VD01.101/0./1.1(!!9ty)!)(()!))!))((!)(ysssssvzvtzst~szv(!!($/K7D9K3@A3988631:AA:@88@9::::89@AZ
p1676
sg20
I118
ss(Vfc064fc73
p1677
V44f80d083
p1678
tp1679
(dp1680
g7
g8
(g12
S'\xca\x04\x00\x00'
p1681
tp1682
Rp1683
sg18
VD-/11/01011./01/0.1,(!!9t(()(((!))((!)(()!))!)()tzt~sszvtsttstsu~ssszvzs(!!($/KCJI7:413J@21IC3:??F8B9@9@99::A@88?@?@9A?8A8Z
p1684
sg20
I163
ss(Ve11621516
p1685
V95c2ff4a0
p1686
tp1687
(dp1688
g7
g8
(g12
S'm\x05\x00\x00'
p1689
tp1690
Rp1691
sg18
VD/..11.1/../1/0...///.1.1,(!!9t)((!)()!)((()(!)(()!)(()(!)((t)szvutt~u~stzttst~zsvusv(!!($/K:9H7H3DD5JI1IK7H@1AD6AGGF88A8?:@@8:?9?8:@9989A@A9Z
p1692
sg20
I189
ss(Vfc064fc73
p1693
V52621a10d
p1694
tp1695
(dp1696
g7
g8
(g35
S'\x1d\x03\x00\x00\x00\x00\x00\x00'
p1697
tp1698
Rp1699
sg18
VD/.0//0/0/-(!!9t(()((((!)((st~stu~z~(!!($/K7@D:525AJC:?:A9@98:Z
p1700
sg20
I77
ss(V895656306
p1701
V8025608c0
p1702
tp1703
(dp1704
g7
g8
(g12
S'\x07\x04\x00\x00'
p1705
tp1706
Rp1707
sg18
VD,0110/1.11..10/,(!!9t)!)(()((!))!)((()!))uvsztstvz~zs~zs(!!($/KA4A::3:EI97:H8KB::@@:?:?9@8:@?9Z
p1708
sg20
I127
ss(Vfc064fc73
p1709
V23e0d5528
p1710
tp1711
(dp1712
g7
g8
(g12
S'^\x04\x00\x00'
p1713
tp1714
Rp1715
sg18
VD,101./.0////1./0-(!!9t)!))(!)()!)(()!)()(!)(~ztvsssssuvttzvttsu(!!($/KEB94CC767EA3H9CAC@@?A88999:9A:9:A?AAZ
p1716
sg20
I132
ss(Ve11621516
p1717
V93f0fa221
p1718
tp1719
(dp1720
g7
g8
(g12
S'\x0e\x03\x00\x00'
p1721
tp1722
Rp1723
sg18
VD-1.//./100(!!9t)(!))!))!)(((ttttvzvus(!!($/KCC93E137C6@8A98A98AZ
p1724
sg20
I78
ss(Vd429fbdc0
p1725
V35a8bf1d
p1726
tp1727
(dp1728
g7
g1103
sg18
VD-.1../0/101/10011.1(!!9t()!)((()((((!))!)(()((tssssztsvuvtsssustssvuvttu(!!($/K167@3AK16:75K392H6DB9?9A9@AAA9?999:A@99@@?@@@Z
p1729
sg20
I161
ss(V26ebd36a0
p1730
V69693082b
p1731
tp1732
(dp1733
g7
g8
(g12
S'n\x02\x00\x00'
p1734
tp1735
Rp1736
sg18
VD.//01(!!9t)!))!)(~ttu(!!($/KCD31HA899Z
p1737
sg20
I41
ss(Vfc064fc73
p1738
V6bbbe9062
p1739
tp1740
(dp1741
g7
g8
(g12
S'\x1e\x03\x00\x00'
p1742
tp1743
Rp1744
sg18
VD./..1//.-(!!9t)((((((!))uvutst~z(!!($/KJ@I:AFF49?@@A@8:9Z
p1745
sg20
I64
ss(V1aa043de0
p1746
Va0d713be
p1747
tp1748
(dp1749
g7
g8
(g35
S'\x1c\x03\x00\x00\x00\x00\x00\x00'
p1750
tp1751
Rp1752
sg18
VD./0//.00/.(!!9t()!)()!)()(!)~utsttts~(!!($/K2J1D6D516H@8@8AAA@@Z
p1753
sg20
I77
ss(V9f9cff207
p1754
Vc5dfdaf21
p1755
tp1756
(dp1757
g7
g8
(g12
S'\xb6\x02\x00\x00'
p1758
tp1759
Rp1760
sg18
VD-1/0./0(!!9t((()!)((ttvszs(!!($/KI1@@53K@:9A89Z
p1761
sg20
I54
ss(Vfc064fc73
p1762
V3e092af5d
p1763
tp1764
(dp1765
g7
g8
(g12
S'-\x03\x00\x00'
p1766
tp1767
Rp1768
sg18
VD,0//..101-(!!9t)((((!))(((tutsvzvs(!!($/KCI@I5I4@4F:@A@@@8:Z
p1769
sg20
I72
ss(V26ebd36a0
p1770
V91a6b5659
p1771
tp1772
(dp1773
g7
g8
(g12
S'\xd0\x03\x00\x00'
p1774
tp1775
Rp1776
sg18
VD.//1./..00/1(!!9t)!)()!))((!)(((ty~szvzstssvus~uv(!!($/K2:74JFDB5F88@:@?@9A898:??88?AZ
p1777
sg20
I101
ss(V5c744d940
p1778
Vad4a7b3f6
p1779
tp1780
(dp1781
g7
g8
(g35
S'7\x03\x00\x00\x00\x00\x00\x00'
p1782
tp1783
Rp1784
sg18
VD00/10.00//(!!9ty)!))!)()((((ttsttzsvts(!!($/K9I?32E43:6C@:@8@@::A?Z
p1785
sg20
I87
ss(Vfc064fc73
p1786
V775a2e0bb
p1787
tp1788
(dp1789
g7
g8
(g12
S'\xa3\x04\x00\x00'
p1790
tp1791
Rp1792
sg18
VD,1.0.00/00.1100/./-(!!9t)((!)((()!))!)(()(!)()t!)tst~zvzsvusvztvutvt(!!($/K:5:KEH:KG6762598HK@CA@:A:989::@A9??:8@9Z
p1793
sg20
I150
ss(Ve11621516
p1794
V14ec91a6b
p1795
tp1796
(dp1797
g7
g8
(g12
S'\xdf\x02\x00\x00'
p1798
tp1799
Rp1800
sg18
VD.1.000.(!!9t)(!))!))!)tvutvtzs(!!($/K:AJ34HB9?::?8?9Z
p1801
sg20
I58
ss(V9f9cff207
p1802
V9e6bdb65d
p1803
tp1804
(dp1805
g7
g8
(g12
S'\x0f\x03\x00\x00'
p1806
tp1807
Rp1808
sg18
VD,/0..101(!!9t)!)((()(!)ysvtutsvtu(!!($/KG?B2B2I1F:::A88@:9Z
p1809
sg20
I66
ss(V26ebd36a0
p1810
Vb2a6b2824
p1811
tp1812
(dp1813
g7
g8
(g35
S'N\x03\x00\x00\x00\x00\x00\x00'
p1814
tp1815
Rp1816
sg18
VD0./11/10-(!!9ty)((((((!))zstssst~szs(!!($/K@C6F9:6DJ?8AA89::88A9Z
p1817
sg20
I80
ss(Vfc064fc73
p1818
Vc709bf474
p1819
tp1820
(dp1821
g7
g8
(g12
S'\xbd\x03\x00\x00'
p1822
tp1823
Rp1824
sg18
VD-.1//0/.1..11/(!!9t()!))!)(((((()!))ttutsvssu~sz~ts(!!($/K842HC6E1H7A93I9:898889?8@9AA8Z
p1825
sg20
I111
ss(V26ebd36a0
p1826
Vb52f61cda
p1827
tp1828
(dp1829
g7
g8
(g12
S'\x99\x03\x00\x00'
p1830
tp1831
Rp1832
sg18
VD-/0..11...0-(!!9t)(!)((()!))(!)t(~ustsststt(!!($/KG@I@@F1BIKAD9@A@:?8998@Z
p1833
sg20
I88
ss(Vfc064fc73
p1834
Vb7bf25eaa
p1835
tp1836
(dp1837
g7
g8
(g12
S'A\x03\x00\x00'
p1838
tp1839
Rp1840
sg18
VD/0.//./..0(!!9t()!))!)((()!)vtzvztv(!!($/KDIICDFKK2K?A:898@Z
p1841
sg20
I71
ss(Ve6e7e0440
p1842
Vef261f004
p1843
tp1844
(dp1845
g7
g770
sg18
VD//111./(!!9t()!)()((tztvttzsv(!!($/K:1@5A8ADFA:9:::9Z
p1846
sg20
I63
ss(V9f9cff207
p1847
V44a900901
p1848
tp1849
(dp1850
g7
g8
(g12
S'\xa6\x02\x00\x00'
p1851
tp1852
Rp1853
sg18
VD-.100(!!9t(()((ytszss(!!($/K:D:@J:?9A:AZ
p1854
sg20
I43
ss(V895656306
p1855
Vc260b20cf
p1856
tp1857
(dp1858
g7
g8
(g12
S'\xc5\x02\x00\x00'
p1859
tp1860
Rp1861
sg18
VD.110/0.0(!!9t)(!)()!))!)~zttvts(!!($/K945173GE899?@@AZ
p1862
sg20
I67
ss(V969ffa43c
p1863
V902a9c2fd
p1864
tp1865
(dp1866
g7
g8
(g35
S'4\x04\x00\x00\x00\x00\x00\x00'
p1867
tp1868
Rp1869
sg18
VD-0//./0..1.../.-(!!9t)!))(((((((!)()!))z(~zs~uttsssvtztv(!!($/K77CHFH2H5@?FA2JFF:@8A?9@A:?98@8AZ
p1870
sg20
I116
ss(Va6ba4cc30
p1871
V6a9d308a
p1872
tp1873
(dp1874
g7
g8
(g35
S'\xe3\x02\x00\x00\x00\x00\x00\x00'
p1875
tp1876
Rp1877
sg18
VD///100/,(!!9t)((((!))!)~ttztv(!!($/K:HK7FF39?A?9A?Z
p1878
sg20
I62
ss(V895656306
p1879
V4d269a2a8
p1880
tp1881
(dp1882
g7
g8
(g12
S'3\x03\x00\x00'
p1883
tp1884
Rp1885
sg18
VD-/10/0/1/1(!!9t)!)(()(!))((uttt~z~uv(!!($/KE66H685FCE@A:?AA@:9Z
p1886
sg20
I83
ss(V969ffa43c
p1887
V4a58d0eb9
p1888
tp1889
(dp1890
g7
g8
(g35
S'W\x04\x00\x00\x00\x00\x00\x00'
p1891
tp1892
Rp1893
sg18
VD./01//.11./.1//.-(!!9ty((((()!)()(!)((()!))yzs~tsuvzts~u~zttvu(!!($/K8@72K4149A@HBCE:9::8:@8?:????9?@@:@:8Z
p1894
sg20
I140
ss(V9f9cff207
p1895
Vde7955271
p1896
tp1897
(dp1898
g7
g8
(g12
S'\xdb\x02\x00\x00'
p1899
tp1900
Rp1901
sg18
VD,.101/,(!!9t)!))!)(()tsssuvut(!!($/KH6?57FF998?8?::Z
p1902
sg20
I52
ss(V9f9cff207
p1903
V0c27b2a30
p1904
tp1905
(dp1906
g7
g8
(g35
S'I\x03\x00\x00\x00\x00\x00\x00'
p1907
tp1908
Rp1909
sg18
VD/0......0(!!9ty(()!)()(!))tttzttvuvzv(!!($/K5@G8@C8D6DAA8:?888:A:Z
p1910
sg20
I73
ss(V9f9cff207
p1911
V5b3e720dd
p1912
tp1913
(dp1914
g7
g8
(g12
S'h\x03\x00\x00'
p1915
tp1916
Rp1917
sg18
VD-/.11./.100--(!!9t)!)((()(((((((tutsvtttuv(!!($/KBIE153H:G539C:8?:A8@::@Z
p1918
sg20
I94
ss(Vfc064fc73
p1919
V7fbc43cb9
p1920
tp1921
(dp1922
g7
g8
(g35
S'H\x05\x00\x00\x00\x00\x00\x00'
p1923
tp1924
Rp1925
sg18
VD-10.101/0//./.1.01./.1/-(!!9t)!)((()((((((((((((!)()!)(t)zt~tu~z~sz~tuvsu~szt~u(!!($/KAA7H62GDEI66H7F@@4ECC8I9@:?@?8@@@@A9:AA89A9:A:@Z
p1926
sg20
I190
ss(Vfc064fc73
p1927
V72859550e
p1928
tp1929
(dp1930
g7
g8
(g12
S'\xce\x04\x00\x00'
p1931
tp1932
Rp1933
sg18
VD-01/00/111.0/.0.//.-(!!9t()(!)()!))((!)()!)()!)()y!)s~u~sstz~sszvtu~utvsz(!!($/K?3C9K2HE5H9138J4DAFEA@?@:??@9?A9998??:@?::Z
p1934
sg20
I161
ss(V969ffa43c
p1935
V6d29bdf56
p1936
tp1937
(dp1938
g7
g8
(g12
S'\xe6\x02\x00\x00'
p1939
tp1940
Rp1941
sg18
VD,0//0.0/0(!!9t)((!)(()((zt~sstu(!!($/K882H:88@B:A9?@::Z
p1942
sg20
I67
ss(Ve11621516
p1943
V35917ec8e
p1944
tp1945
(dp1946
g7
g741
sg18
VD/00/.00000../0../0..01(!!9t((()!))(!)()((!)()(!))(!))(zys~u~sutt~ustvzttvsusstst(!!($/KIDB16JJG1K2B5F@:K62H:8AE8:@:@??A:?9?A88?8@A@A9?9Z
p1947
sg20
I179
ss(Ve11621516
p1948
V7eb99a521
p1949
tp1950
(dp1951
g7
g8
(g12
S'\x0e\x03\x00\x00'
p1952
tp1953
Rp1954
sg18
VD,.00/11.0(!!9t)!))((!)()(ststutvz(!!($/KD?4JC4CI59@A???:8Z
p1955
sg20
I70
ss(V969ffa43c
p1956
V5935a97b8
p1957
tp1958
(dp1959
g7
g8
(g35
S'N\x05\x00\x00\x00\x00\x00\x00'
p1960
tp1961
Rp1962
sg18
VD-100.010//1.10..1.011,(!!9t()(!)(((()!))((!)(((()(!))z~tzsvzs~uvtsstz~stu~sus(!!($/KID:FD7@BK881K7CCIJECIFA88@89??:@:99@:9:?@9??8:Z
p1963
sg20
I180
ss(Vfc064fc73
p1964
Vebe1663c2
p1965
tp1966
(dp1967
g7
g8
(g35
S'm\x04\x00\x00\x00\x00\x00\x00'
p1968
tp1969
Rp1970
sg18
VD-.1110./..100..-,(!!9t)(!)(((()(!))((!)()!)vztvsutvz~uvsu~s(!!($/KGB:KEJ9G@HI7EAFFE@@A8:9889A?:89?:Z
p1971
sg20
I124
ss(Vfc064fc73
p1972
V1eb10cef6
p1973
tp1974
(dp1975
g7
g8
(g12
S',\x05\x00\x00'
p1976
tp1977
Rp1978
sg18
VD00/10100./1/0.001/1-(!!9ty)(!)(()(!)(((((()(((!)ttt(vstuvzvsztts~u~szvttzs~(!!($/KF3H1IC5A9?I5DJ235J1J:CFF:9:9:@8@9A9::9@9???@:8:Z
p1979
sg20
I180
ss(V26ebd36a0
p1980
Ve2203b1f8
p1981
tp1982
(dp1983
g7
g8
(g12
S'2\x03\x00\x00'
p1984
tp1985
Rp1986
sg18
VD/.//1.///(!!9t)(!))!))!))(tsszs~sssss(!!($/KE5A6I46E6A@@:@998A?9Z
p1987
sg20
I70
ss(V3e2dc0e10
p1988
V363f5d76
p1989
tp1990
(dp1991
g7
g8
(g35
S'\x19\x05\x00\x00\x00\x00\x00\x00'
p1992
tp1993
Rp1994
sg18
VD-./1011.0110..1.0100//-(!!9t(((((((()(((!)((()(!)()!)(t~ttsstuttsvzvus~z~tzt~(!!($/K742?H7E58IDAF3KK:I7BE2DF@:8:A@?8:?88?A989988:9Z
p1995
sg20
I189
ss(V969ffa43c
p1996
Vab4b62790
p1997
tp1998
(dp1999
g7
g8
(g12
S'\x8c\x02\x00\x00'
p2000
tp2001
Rp2002
sg18
VD//0.001(!!9t)(!)()!))tsst(!!($/K3J3@A1E@9:8Z
p2003
sg20
I54
ss(Ve11621516
p2004
V8f4694cb8
p2005
tp2006
(dp2007
g7
g8
(g12
S'x\x05\x00\x00'
p2008
tp2009
Rp2010
sg18
VD.0/.1101.10/11.0./00.,-(!!9ty)!))!)()(!))!)(()(((!))!))(!)y)tsszsvzvusvtust~tzvzt~uvt(!!($/K499JHJK122GBB5H4CCB9J::@E8A@:A?A:A:98?99@:9@@A:8AAZ
p2011
sg20
I190
ss(V969ffa43c
p2012
Vebaf18dd3
p2013
tp2014
(dp2015
g7
g8
(g12
S'"\x05\x00\x00'
p2016
tp2017
Rp2018
sg18
VD/0/0/..1/10/.1./0//0-,(!!9t)!)(()((!))(!))!)(()!)()!))!)tvut~tsstu~usttvtzvst(!!($/KKHBKE?F2:JAE8KF14HE:DF?9:@@@??@8A?9:@:88:A?Z
p2019
sg20
I168
ss(V64c6087a0
p2020
V0bab9a9a
p2021
tp2022
(dp2023
g7
g8
(g35
S'\xb2\x02\x00\x00\x00\x00\x00\x00'
p2024
tp2025
Rp2026
sg18
VD10////(!!9ty(((()(zvsszt(!!($/K1K2I52C?:??9AZ
p2027
sg20
I53
ss(V895656306
p2028
Vb356d63d9
p2029
tp2030
(dp2031
g7
g8
(g12
S'e\x03\x00\x00'
p2032
tp2033
Rp2034
sg18
VD-./..././../-(!!9t(()(!)(()((!)()ttu~uvz~(!!($/K7H8B9F26KAJG@@88@A8:AZ
p2035
sg20
I82
ss(Vfc064fc73
p2036
V1aefa0746
p2037
tp2038
(dp2039
g7
g8
(g12
S'_\x03\x00\x00'
p2040
tp2041
Rp2042
sg18
VD/.11..01.1/(!!9t()!))!)()(!)()ttustvztttvu(!!($/K9BF4I7151F?D:8:8A@88A:@Z
p2043
sg20
I92
ss(V895656306
p2044
V69712f8d1
p2045
tp2046
(dp2047
g7
g8
(g12
S'\x06\x04\x00\x00'
p2048
tp2049
Rp2050
sg18
VD/10100.11..1./(!!9t)!)(()((!)()((!)(~ut~sttsszsvtttu(!!($/KFF6@61CI4JGBJ1A8:8A??@@?AA8:@?Z
p2051
sg20
I120
ss(V9f9cff207
p2052
V36921b1ab
p2053
tp2054
(dp2055
g7
g8
(g12
S'\xb6\x03\x00\x00'
p2056
tp2057
Rp2058
sg18
VD01/.0.1/00-(!!9ty((()!))!)(()z(vtutsttsss~u(!!($/KK?4I7::CICI@9@99A?@:A9@:?Z
p2059
sg20
I94
ss(V9f9cff207
p2060
V824f6755b
p2061
tp2062
(dp2063
g7
g8
(g12
S'\xd2\x02\x00\x00'
p2064
tp2065
Rp2066
sg18
VD.1.1.00-(!!9t((((()(!)s~tu~u(!!($/KGBCG2C6:8A9@98Z
p2067
sg20
I60
ss(Vbb258e2b0
p2068
Vaf6f8c09
p2069
tp2070
(dp2071
g7
g8
(g35
S'\xb9\x03\x00\x00\x00\x00\x00\x00'
p2072
tp2073
Rp2074
sg18
VD11.00/0/./(!!9ty()!))((((((tstszsvsustsss(!!($/K@5GBKH8ICD@8??@A9@9@8:?@:Z
p2075
sg20
I88
ss(V969ffa43c
p2076
V15c05888f
p2077
tp2078
(dp2079
g7
g8
(g12
S'\x93\x02\x00\x00'
p2080
tp2081
Rp2082
sg18
VD/1010/(!!9t)!))(!))u~ttt(!!($/K2ACB:99?:@@Z
p2083
sg20
I53
ss(V9f9cff207
p2084
Vf4441852d
p2085
tp2086
(dp2087
g7
g8
(g12
S'A\x03\x00\x00'
p2088
tp2089
Rp2090
sg18
VD,./00.0.0.,(!!9t)(!)()!))((!)t)tsz~sztv(!!($/KK2E:65FB7HC98A?::9A8Z
p2091
sg20
I77
ss(V969ffa43c
p2092
Ve06c0c720
p2093
tp2094
(dp2095
g7
g8
(g12
S'\x7f\x03\x00\x00'
p2096
tp2097
Rp2098
sg18
VD-10/0/1/1..(!!9t)(!)()(((!))(sstuvzsvuvz~su(!!($/KI2I35D1E51BA9?A:@98:A:A8:Z
p2099
sg20
I90
ss(Vfc064fc73
p2100
Vba01e59f0
p2101
tp2102
(dp2103
g7
g8
(g12
S'\xb5\x03\x00\x00'
p2104
tp2105
Rp2106
sg18
VD//010/01././-,(!!9t)!))!))(!))(((((!)~zttvzvtsu~u(!!($/K94HJ7?:CB1AHFF@?8?88?AA988Z
p2107
sg20
I105
ss(Ve11621516
p2108
Vba41ca907
p2109
tp2110
(dp2111
g7
g8
(g12
S'\x9f\x05\x00\x00'
p2112
tp2113
Rp2114
sg18
VD.110//.01..00.0.1../(!!9t((()(((!))!))(!))!))!))(!)~tttstuvusvsutt~sus~stssussvzs(!!($/KG:?HJG6JJD9@@7K@?E9I?@@8@::8:A9A8A?A@98@A9??@89A?AZ
p2115
sg20
I168
ss(V26ebd36a0
p2116
V867fd2816
p2117
tp2118
(dp2119
g7
g8
(g12
S'9\x03\x00\x00'
p2120
tp2121
Rp2122
sg18
VD-./.1./00//(!!9t)!)()(!))!))((tttsus~z~u(!!($/KDA6EBE721@3@899:?:A@?Z
p2123
sg20
I83
ss(Vb19583cb0
p2124
V8df9265c3
p2125
tp2126
(dp2127
g7
g8
(g35
S'\x19\x03\x00\x00\x00\x00\x00\x00'
p2128
tp2129
Rp2130
sg18
VD.././.../.(!!9ty)(!))!)(((()sztttvzs(!!($/K9AGI@7B51?4?:88:?@9Z
p2131
sg20
I71
ss(V26ebd36a0
p2132
V6a20d88cf
p2133
tp2134
(dp2135
g7
g8
(g12
S'\x90\x02\x00\x00'
p2136
tp2137
Rp2138
sg18
VD-1/11/(!!9t)!))!))!)tsvsz(!!($/K1IC15E8A:@?Z
p2139
sg20
I49
ss(V9f9cff207
p2140
V89179ae92
p2141
tp2142
(dp2143
g7
g8
(g12
S'F\x03\x00\x00'
p2144
tp2145
Rp2146
sg18
VD,./.10.0/.(!!9t)!))(((!))!))uvusvu~ttss(!!($/K45?:KHA59CA8888?8AAA8Z
p2147
sg20
I73
ss(V9f9cff207
p2148
V250f89d43
p2149
tp2150
(dp2151
g7
g8
(g12
S'\x93\x03\x00\x00'
p2152
tp2153
Rp2154
sg18
VD-/10.01./.(!!9t()((!))!))((tzssvszttvtuss(!!($/KJGI342J4DF@DA@99?99?9@8?Z
p2155
sg20
I83
ss(Ve11621516
p2156
Vc13fc08e0
p2157
tp2158
(dp2159
g7
g8
(g12
S'\xea\x02\x00\x00'
p2160
tp2161
Rp2162
sg18
VD.../.01..1(!!9t(()!)((((((t~tzts(!!($/KC3JK41E?B1?898@:Z
p2163
sg20
I72
ss(V969ffa43c
p2164
V5476982c9
p2165
tp2166
(dp2167
g7
g8
(g12
S'\xde\x04\x00\x00'
p2168
tp2169
Rp2170
sg18
VD.0..1010000...../.1/--(!!9t((((((()(!))!))(!)()!))!)((vsut~stz~szt~ssz~z~(!!($/KK3:KB6AB2FHDKHBA7J91@A9:8:A9@:?@:99AA99:@Z
p2171
sg20
I164
ss(V26ebd36a0
p2172
V3967052d7
p2173
tp2174
(dp2175
g7
g8
(g35
S'\xe8\x02\x00\x00\x00\x00\x00\x00'
p2176
tp2177
Rp2178
sg18
VD./1.///(!!9t()!)()((z~zvusv(!!($/KE:F9BGH?98@9@AZ
p2179
sg20
I54
ss(V2ed089570
p2180
Vf1f0386c
p2181
tp2182
(dp2183
g7
g1752
sg18
VD./0//.00/.(!!9t()!)()!)()(!)~utsttts~(!!($/K2J1D6D516H@8@8AAA@@Z
p2184
sg20
I77
ss(V9f9cff207
p2185
Vfb48b69d0
p2186
tp2187
(dp2188
g7
g8
(g12
S'\xa6\x02\x00\x00'
p2189
tp2190
Rp2191
sg18
VD,.//./(!!9t)!))(!))tzt~(!!($/K@GHGK3A:?AZ
p2192
sg20
I41
ss(Va6ba4cc30
p2193
V22cae867
p2194
tp2195
(dp2196
g7
g8
(g35
S'\xaf\x02\x00\x00\x00\x00\x00\x00'
p2197
tp2198
Rp2199
sg18
VD-000/01(!!9t)(!))((!)~tu~s(!!($/K::C?5AJA::9:Z
p2200
sg20
I56
ss(Ve11621516
p2201
V06f6b1f48
p2202
tp2203
(dp2204
g7
g8
(g35
S'\x85\x02\x00\x00\x00\x00\x00\x00'
p2205
tp2206
Rp2207
sg18
VD,0/100(!!9t)!)()!)(tsvzs(!!($/KA5B36F99:88Z
p2208
sg20
I47
ss(V969ffa43c
p2209
V67af318a4
p2210
tp2211
(dp2212
g7
g8
(g35
S'\x11\x03\x00\x00\x00\x00\x00\x00'
p2213
tp2214
Rp2215
sg18
VD-1/.0././(!!9t(()(!))(((ztsvz~ut(!!($/KCJDH?21H7A@8@8@9AZ
p2216
sg20
I67
ss(V895656306
p2217
Vb3599cbe4
p2218
tp2219
(dp2220
g7
g8
(g12
S'\xc1\x03\x00\x00'
p2221
tp2222
Rp2223
sg18
VD.10/011011../0(!!9t()(!))(!)()!))((!)ttvut~zs~ut~zt(!!($/KA5IA9C6E:H6B21999?@9AA?9:A8@Z
p2224
sg20
I121
ss(Vbe061e3a0
p2225
V0c417f14
p2226
tp2227
(dp2228
g7
g8
(g35
S'\xc2\x04\x00\x00\x00\x00\x00\x00'
p2229
tp2230
Rp2231
sg18
VD.11//1/101/.1/.1/0,-(!!9ty((((()(((!)(((()!)()!)(s~ttutsvtu~us~uvuttsvs(!!($/K:B@6:@7E4GJA@A8@6B78?@8?A:9:889?@8?8A888A98Z
p2232
sg20
I164
ss(Ve11621516
p2233
Vdb813f228
p2234
tp2235
(dp2236
g7
g8
(g12
S'\xb5\x02\x00\x00'
p2237
tp2238
Rp2239
sg18
VD/10/00/1(!!9t((()(((!)~zt~u(!!($/K745DGH@2:9:A:Z
p2240
sg20
I66
ss(V55eee6030
p2241
Vf074c61c
p2242
tp2243
(dp2244
g7
g8
(g35
S'\x87\x02\x00\x00\x00\x00\x00\x00'
p2245
tp2246
Rp2247
sg18
VD-////1(!!9t()!))((u~su(!!($/KB973EK8@:9Z
p2248
sg20
I44
ss(V895656306
p2249
V79510c5fd
p2250
tp2251
(dp2252
g7
g8
(g12
S'q\x03\x00\x00'
p2253
tp2254
Rp2255
sg18
VD/1/./00011,(!!9t)!))!))((((!))uvtusvzsttv(!!($/KCK7@HFJ41B?8???8@A9A9:Z
p2256
sg20
I88
ss(Vfc064fc73
p2257
V5dfffc7dd
p2258
tp2259
(dp2260
g7
g8
(g12
S'\xbf\x02\x00\x00'
p2261
tp2262
Rp2263
sg18
VD/10..0-(!!9t(()(!)((~su~s(!!($/KH1F5IBBA?@A@Z
p2264
sg20
I51
ss(V895656306
p2265
V5294f51ee
p2266
tp2267
(dp2268
g7
g1893
sg18
VD./01//.11./.1//.-(!!9ty((((()!)()(!)((()!))yzs~tsuvzts~u~zttvu(!!($/K8@72K4149A@HBCE:9::8:@8?:????9?@@:@:8Z
p2269
sg20
I140
ss(V5a68928d0
p2270
V5eecbe11
p2271
tp2272
(dp2273
g7
g1318
sg18
VD./..1(!!9t)(!))(tzsvu(!!($/K:9CA@A?@A?Z
p2274
sg20
I38
ss(Vfc064fc73
p2275
Va2e37312c
p2276
tp2277
(dp2278
g7
g1034
sg18
VD/00//01.1110/1./0/1,,-(!!9t)!))!))!)()!))(((((((!)()!)t(vu~tzvu~tzvu~ztss~tu(!!($/K357849I:733J9BEI?888BD:9A??8??A@:9:88AA?A?@Z
p2279
sg20
I174
ss(V969ffa43c
p2280
V744e389ee
p2281
tp2282
(dp2283
g7
g8
(g12
S'\x92\x02\x00\x00'
p2284
tp2285
Rp2286
sg18
VD/01/(!!9ty)!)((tvzss~s(!!($/K?1:A199??@:?Z
p2287
sg20
I42
ss(V26ebd36a0
p2288
V6a861b026
p2289
tp2290
(dp2291
g7
g8
(g12
S'\x91\x03\x00\x00'
p2292
tp2293
Rp2294
sg18
VD-010//01111-(!!9t(((()!)()!))!))uvstz~ttsutsvu(!!($/K4127BDJ1G?4F9@8?:A8@8AA99@Z
p2295
sg20
I103
ss(Ve11621516
p2296
Vdc5334346
p2297
tp2298
(dp2299
g7
g8
(g12
S'7\x05\x00\x00'
p2300
tp2301
Rp2302
sg18
VD0./.1.0/00..0.011/1/,,(!!9ty)(!))((!))(!))((!))!))!)(()y!)~zs~susvsssussvutss~u~z~t(!!($/KK?9E38145@6H4BF2D5KG2:B?A@9?99@9@:@88A@?@?9A?A:9@Z
p2303
sg20
I176
ss(V895656306
p2304
V811e7702d
p2305
tp2306
(dp2307
g7
g1768
sg18
VD,0//..101-(!!9t)((((!))(((tutsvzvs(!!($/KCI@I5I4@4F:@A@@@8:Z
p2308
sg20
I72
ss(V969ffa43c
p2309
V5fcf61f7b
p2310
tp2311
(dp2312
g7
g8
(g12
S'\x98\x03\x00\x00'
p2313
tp2314
Rp2315
sg18
VD/110/...//.0(!!9t()!))((!)(((((s~tz~zsssstv(!!($/K9KCHAK@@?A1@8A9@:?9899@AZ
p2316
sg20
I94
ss(Vfc064fc73
p2317
V1834a5d52
p2318
tp2319
(dp2320
g7
g8
(g12
S'\x85\x02\x00\x00'
p2321
tp2322
Rp2323
sg18
VD1//01(!!9ty(()((tsut(!!($/K55E@BH9::8Z
p2324
sg20
I46
ss(V895656306
p2325
V0beec9c5c
p2326
tp2327
(dp2328
g7
g8
(g12
S'&\x05\x00\x00'
p2329
tp2330
Rp2331
sg18
VD0.0.0//./0./.10101000-(!!9ty)(!))!))(!)()!)()(!))(!)((()zvtz~u~ustts~szvzsvzt~uvs(!!($/KA358@1J3CI?27FAK3AKD819:@9?A?98A8A:AA99A@??9?88AZ
p2332
sg20
I183
ss(V969ffa43c
p2333
V2ea6136fe
p2334
tp2335
(dp2336
g7
g8
(g12
S'\x1d\x05\x00\x00'
p2337
tp2338
Rp2339
sg18
VD,/1110..010/..111..10-(!!9t)(!)()(!))((!))!))(!)()!))(y(sszvu~su~stuvtsstzstsssvt(!!($/K5B18H53KBA3G5@JF?@17?A8@::@:A8:@A9?899:@9:@:9:@:Z
p2340
sg20
I180
ss(V895656306
p2341
V5a7a26af0
p2342
tp2343
(dp2344
g7
g8
(g12
S'\xa1\x02\x00\x00'
p2345
tp2346
Rp2347
sg18
VD-..0100(!!9t((((()(sztvu(!!($/K1CAA28F9@@8AZ
p2348
sg20
I52
ss(V9f9cff207
p2349
V4de110a45
p2350
tp2351
(dp2352
g7
g8
(g35
S'~\x03\x00\x00\x00\x00\x00\x00'
p2353
tp2354
Rp2355
sg18
VD1//0./..00...,(!!9ty(((((()!)(()(!))z~tzvuvtz~s(!!($/KA39497D3F44:5D8:AA@8@8@8??Z
p2356
sg20
I103
ss(V26ebd36a0
p2357
V075b1ea2c
p2358
tp2359
(dp2360
g7
g8
(g12
S'\x0e\x05\x00\x00'
p2361
tp2362
Rp2363
sg18
VD././//./1/110.101010/,(!!9t)!)()((!))!))!))((!)()((!))t!)vsstzttstssvtttstz~stus(!!($/K8EF:CK31IIC6:8E57733G?:A9AAA9?:@8A8@99@????@9:Z
p2364
sg20
I180
ss(V969ffa43c
p2365
Vf6641f831
p2366
tp2367
(dp2368
g7
g8
(g12
S'\x8d\x05\x00\x00'
p2369
tp2370
Rp2371
sg18
VD-.1.//1//0./.1.01//1/10-(!!9t)(!))!))!))((((((((((((!)()!)stsvu~u~zvsusvszts~tu~zssssv(!!($/KD3F@KGEJB?73:813I@IJ299@AA8@99?A?:9@998@9@?9?8:@@@@?Z
p2372
sg20
I190
ss(Vfc064fc73
p2373
V509ccab5e
p2374
tp2375
(dp2376
g7
g8
(g12
S'\x12\x03\x00\x00'
p2377
tp2378
Rp2379
sg18
VD.0001/11-(!!9t)((!))!))(z(stst~ust(!!($/KHC?H9231ADA9?:?:8AZ
p2380
sg20
I76
ss(V969ffa43c
p2381
V0d6c6c6b9
p2382
tp2383
(dp2384
g7
g8
(g35
S'$\x03\x00\x00\x00\x00\x00\x00'
p2385
tp2386
Rp2387
sg18
VD..1.../1./,-(!!9t()!)()!))((!))!)vtszttsss(!!($/K51IG1G72268A8?@988A9:Z
p2388
sg20
I80
ss(Vd4c9206c0
p2389
V32ebe1279
p2390
tp2391
(dp2392
g7
g8
(g35
S'\xe0\x02\x00\x00\x00\x00\x00\x00'
p2393
tp2394
Rp2395
sg18
VD//./01.11(!!9t(()!)()!)()tz~z~t(!!($/K8BAE6?C@1?A::A@Z
p2396
sg20
I73
ss(V9f9cff207
p2397
V4cdcbafb5
p2398
tp2399
(dp2400
g7
g8
(g12
S'\xdc\x02\x00\x00'
p2401
tp2402
Rp2403
sg18
VD/111100(!!9t(()((((tttusts(!!($/KK@37JAH88A?8?:Z
p2404
sg20
I65
ss(V26ebd36a0
p2405
V8ec51e4a4
p2406
tp2407
(dp2408
g7
g8
(g12
S'\x8a\x02\x00\x00'
p2409
tp2410
Rp2411
sg18
VD-1./0.(!!9t()!)()(uvztv(!!($/K33?I89?99?AZ
p2412
sg20
I44
ss(V6bc1625c0
p2413
V883affb3
p2414
tp2415
(dp2416
g7
g8
(g35
S'\x8b\x03\x00\x00\x00\x00\x00\x00'
p2417
tp2418
Rp2419
sg18
VD-./01../1100(!!9t)!)(((((((()(uvstzs~u~su~(!!($/K84KJ96D:7CK6A9889?A9@A@8Z
p2420
sg20
I95
ss(V26ebd36a0
p2421
V588a07a42
p2422
tp2423
(dp2424
g7
g8
(g35
S'\xc1\x04\x00\x00\x00\x00\x00\x00'
p2425
tp2426
Rp2427
sg18
VD/1./.001.1.0./0../,,(!!9t)((!))!)()!)(()(!)(()!)t)!)stt~zvuvtu~uvusst~zs(!!($/KDB6G3424GKJA7E8EF5FC9A89:9@9@?9::A8A@9@89Z
p2428
sg20
I150
ss(V5a68928d0
p2429
V08f4acf6
p2430
tp2431
(dp2432
g7
g8
(g35
S'\xb0\x02\x00\x00\x00\x00\x00\x00'
p2433
tp2434
Rp2435
sg18
VD,.0..10(!!9t)!)(((((vsu~z(!!($/K74@HG9A9???AZ
p2436
sg20
I49
ss(Ve11621516
p2437
V92f576cb2
p2438
tp2439
(dp2440
g7
g1209
sg18
VD.11.1/(!!9t)!))(!))ztts~s(!!($/K?J93A1?89?:?Z
p2441
sg20
I52
ss(Ve11621516
p2442
V1cb9236ac
p2443
tp2444
(dp2445
g7
g8
(g12
S'.\x03\x00\x00'
p2446
tp2447
Rp2448
sg18
VD.//0/11..(!!9t((()!))(!))zyvttzsvtzs(!!($/K9@53A4CHB@:??::9?98AZ
p2449
sg20
I77
ss(V26ebd36a0
p2450
V89fdaeab3
p2451
tp2452
(dp2453
g7
g1201
sg18
VD.00/0./1(!!9t)(!)()(((ttszss(!!($/K?:BC?EI@@A8A@9Z
p2454
sg20
I62
ss(V895656306
p2455
V252063510
p2456
tp2457
(dp2458
g7
g8
(g12
S'>\x05\x00\x00'
p2459
tp2460
Rp2461
sg18
VD/11//.011/.1001././/,-(!!9ty)!)()!))(!))!))((!))(((!)()z(tvtus~zvustvtu~zs~ttz~u(!!($/K?6C?55G:B7A:H@54EKGKEAD9A@8:9@:@9?9?8:@:A::@A?9Z
p2462
sg20
I181
ss(V26ebd36a0
p2463
Vb589dfe68
p2464
tp2465
(dp2466
g7
g1209
sg18
VD.11.1/(!!9t)!))(!))ztts~s(!!($/K?J93A1?89?:?Z
p2467
sg20
I52
ss(V895656306
p2468
Vf5592c517
p2469
tp2470
(dp2471
g7
g8
(g12
S'\x1a\x05\x00\x00'
p2472
tp2473
Rp2474
sg18
VD/..//0.//01.11/./0./.0,(!!9t)((!)(()((((((!))!)()((!))!)~us~u~zt~sttz~ut~ssusss(!!($/K17@J:D8DJ9HEE3J292C5:GF@:A9?A?:@8?99A8@988@::9Z
p2475
sg20
I175
ss(V969ffa43c
p2476
V9ee49b452
p2477
tp2478
(dp2479
g7
g8
(g12
S'\xc3\x04\x00\x00'
p2480
tp2481
Rp2482
sg18
VD,0//.0/10.10100110(!!9t)(((((!))(!)((()!)(()yzts~ssusvtz~u~utss~su(!!($/K2FFC1J5K8DG:8IE8F@C9?:A?::?:8:@:8???9?9AZ
p2483
sg20
I155
ss(V26ebd36a0
p2484
Vf2d7b2837
p2485
tp2486
(dp2487
g7
g8
(g12
S'\x1f\x05\x00\x00'
p2488
tp2489
Rp2490
sg18
VD-001///../1.01./.../0/-(!!9t)(((((!)()((!)(()!))(((((yt(sutvtstsuss~u~ut~tssztt(!!($/KB9BA@E818299K9:C@I45969DC@98A89:9:A?A:@8@:@88A9AZ
p2491
sg20
I178
ss(V9f9cff207
p2492
V5c82f5a68
p2493
tp2494
(dp2495
g7
g8
(g12
S'&\x05\x00\x00'
p2496
tp2497
Rp2498
sg18
VD/0/./0./1.1.//..//1..,-(!!9t)!)(()(!))!)((()((!)(()((t!))uvtststsstzvzvu~zsvzsvuv(!!($/K342IE4AI:F42DH6939F?CAAB?@A:8::@9@:AA9?889:@9A8?Z
p2499
sg20
I170
ss(V26ebd36a0
p2500
V9fa658c1f
p2501
tp2502
(dp2503
g7
g8
(g35
S'\x96\x02\x00\x00\x00\x00\x00\x00'
p2504
tp2505
Rp2506
sg18
VD//1.../(!!9t((((()(u~tzv(!!($/K149@1I89@?A@Z
p2507
sg20
I51
ss(V26ebd36a0
p2508
V128f24ef3
p2509
tp2510
(dp2511
g7
g8
(g12
S'\xcd\x04\x00\x00'
p2512
tp2513
Rp2514
sg18
VD/.11.//./.100100/..,-(!!9t)(((!)((()!)((()(!))!)(~!)(ttvu~tstzvstttstz~(!!($/K?9?F524BK@816K@FAFKEC@??:A?A???@AA@?AA8@Z
p2515
sg20
I161
ss(V895656306
p2516
Vc30a3822c
p2517
tp2518
(dp2519
g7
g8
(g12
S'\x9d\x02\x00\x00'
p2520
tp2521
Rp2522
sg18
VD-1..10(!!9t(((()!)yt~suv(!!($/K:B499?::9?@?Z
p2523
sg20
I49
ss(Ve11621516
p2524
Vdf7ed0efe
p2525
tp2526
(dp2527
g7
g8
(g35
S'\x9b\x03\x00\x00\x00\x00\x00\x00'
p2528
tp2529
Rp2530
sg18
VD-/1000/010(!!9t()(!))(!))((tyu~tusvu~tstu(!!($/K8KE2EJ9D3B:C98A?:?AA:A@?Z
p2531
sg20
I91
ss(V895656306
p2532
Vb81a4e920
p2533
tp2534
(dp2535
g7
g8
(g12
S'\x05\x05\x00\x00'
p2536
tp2537
Rp2538
sg18
VD-00/1/0.../.000//001./-(!!9t(()(!)()!))(((!))!)((()(!)(~t!)st~tu~zstst~ssszsvtz~t(!!($/K9887F9816@5IH9488G63@?9ACA?@AA98@9A8@?9A::?:@:AZ
p2539
sg20
I182
ss(V9f9cff207
p2540
V576e61f41
p2541
tp2542
(dp2543
g7
g8
(g12
S'\xfd\x02\x00\x00'
p2544
tp2545
Rp2546
sg18
VD-1001100(!!9t()(!))!)((ssstvutsvu(!!($/K67BD16B6889AA:::@?Z
p2547
sg20
I70
ss(V895656306
p2548
V9d763eba7
p2549
tp2550
(dp2551
g7
g8
(g12
S'\xc7\x04\x00\x00'
p2552
tp2553
Rp2554
sg18
VD.1..1/0/../01.0/1./.,(!!9t()!)((((()((!)()!))((((tt!)ts~uvz~szstvu~tut~u~(!!($/KA73?92E5DC@6718?4IAKA@C8A998AA:@9@AA:?@A988Z
p2555
sg20
I163
ss(Va6ba4cc30
p2556
Vdacb7387
p2557
tp2558
(dp2559
g7
g8
(g35
S'\x8a\x05\x00\x00\x00\x00\x00\x00'
p2560
tp2561
Rp2562
sg18
VD.0.001/.10.0/.././.0.0-(!!9t)!))!))!))((!)()!)()!)((((((t~!)~us~uvzvtstuvu~zt~uvsusvus(!!($/KDHG8J17HH51JHF4KKF?9529?9:?8:8:@A??:@9?9??9A:8@?@8AZ
p2563
sg20
I179
ss(V969ffa43c
p2564
V8640cd994
p2565
tp2566
(dp2567
g7
g8
(g35
S'%\x05\x00\x00\x00\x00\x00\x00'
p2568
tp2569
Rp2570
sg18
VD-././1/.10//0./1..0101--(!!9t)(!))(!))(!)()!))!)(()(((((((zvtz~tstzvzt~sttsuvu~zs(!!($/KGIG?1DIFB:8955J82B:61E9FA9@A::A8@@?9@8998::@8:?Z
p2571
sg20
I185
ss(Ved6400ce0
p2572
V6134945f2
p2573
tp2574
(dp2575
g7
g8
(g35
S'+\x03\x00\x00\x00\x00\x00\x00'
p2576
tp2577
Rp2578
sg18
VD.10..1./10/-(!!9t()(!)(()(!))!)t)zttststvt(!!($/K525B71D742@@B:A8?98A?8Z
p2579
sg20
I93
ss(V7fe325b10
p2580
Vcbff5923
p2581
tp2582
(dp2583
g7
g8
(g35
S'\xa9\x04\x00\x00\x00\x00\x00\x00'
p2584
tp2585
Rp2586
sg18
VD-//00/..110.1..1/.,(!!9t)((((((((!)(((()!)()y!)ttvsssstzvttuvzs~tss(!!($/K@343?7A3?49FGIFEDKAD99@:98A89@A8AA@@889@Z
p2587
sg20
I148
ss(V969ffa43c
p2588
V74010dbab
p2589
tp2590
(dp2591
g7
g8
(g12
S'"\x04\x00\x00'
p2592
tp2593
Rp2594
sg18
VD.0/..0111.001..(!!9t()(!)((((((((()!)~yststtuttsvzs~uts(!!($/K228FG6KF?K19A3HA::?A99@8:8A8@9??9Z
p2595
sg20
I127
ss(V9f9cff207
p2596
Vf295eae29
p2597
tp2598
(dp2599
g7
g8
(g35
S'\xd2\x04\x00\x00\x00\x00\x00\x00'
p2600
tp2601
Rp2602
sg18
VD//11100.0.//.0.0,-(!!9t)(((!))((!))((!)(()!))sssstuvusvsuvztvzt~ss(!!($/KJ:BIGD?7J?989HECFE889A?@AA:?99A::A@?@:AZ
p2603
sg20
I139
ss(Vfc064fc73
p2604
V7ae318c9f
p2605
tp2606
(dp2607
g7
g40
sg18
VD.00..100100-(!!9t(()(((((((!))yus~tzsvzvzt(!!($/K?I?H?3FH3HK:A9:::8@@8999Z
p2608
sg20
I99
ss(Ve11621516
p2609
V018123d34
p2610
tp2611
(dp2612
g7
g8
(g12
S'v\x04\x00\x00'
p2613
tp2614
Rp2615
sg18
VD-00.001110/111/0-(!!9t()(!)(((()(((!)()!)y(tvtuvutvstus~sttzs(!!($/KIAH?8EE:@B3JA:35D??9@A:?A8@A8AA:8A9AZ
p2616
sg20
I146
ss(Va0d2bd910
p2617
V68b2a0a7
p2618
tp2619
(dp2620
g7
g1627
sg18
VD..1.1/10(!!9ty((((()!))uvsuvuvttu(!!($/K5A7BE::@48989:@@89AZ
p2621
sg20
I70
ss(V9f9cff207
p2622
V568e20d95
p2623
tp2624
(dp2625
g7
g8
(g12
S'\xd3\x02\x00\x00'
p2626
tp2627
Rp2628
sg18
VD.0.0.1/,(!!9t)!)()(((!)tt~ztt(!!($/K7AK7G3D??@99?9Z
p2629
sg20
I60
ss(V5c744d940
p2630
Vda3aa886e
p2631
tp2632
(dp2633
g7
g8
(g35
S'\xd9\x03\x00\x00\x00\x00\x00\x00'
p2634
tp2635
Rp2636
sg18
VD,1/.00/././/1-,(!!9t)(((((!)()(!)()!))ssstststus~tus(!!($/K24DB4A@4F56DHFCAA:9A8A9999:@AZ
p2637
sg20
I106
ss(Ved6400ce0
p2638
Vfc30b30d5
p2639
tp2640
(dp2641
g7
g8
(g35
S'6\x05\x00\x00\x00\x00\x00\x00'
p2642
tp2643
Rp2644
sg18
VD-//10..1/.1./0/11/011,(!!9t()(!)(()(((!))(((!))((!))z)sut~sttstsstuvuvu~zvuvstu(!!($/K5D81519F5KH2GG44AEBEFB?:A@?::A@8:9:A9@A?@::@?9@8Z
p2645
sg20
I178
ss(V8c7d9c870
p2646
Va94bb4b1
p2647
tp2648
(dp2649
g7
g8
(g35
S'\xa0\x02\x00\x00\x00\x00\x00\x00'
p2650
tp2651
Rp2652
sg18
VD../0/1(!!9t)(!)(()tus~u(!!($/KJ6B7E8@::@@Z
p2653
sg20
I46
ss(Vfc064fc73
p2654
Vf4009edfc
p2655
tp2656
(dp2657
g7
g8
(g12
S'\xe8\x04\x00\x00'
p2658
tp2659
Rp2660
sg18
VD,/0.0.01/0100////0/0-(!!9t)(!))!))!)((((((()!))!))(!)t~stuvzst~stsuvsszsst~t(!!($/K1K4J9CE5B5:@1?59E@5B@F:@@::@8@@?9@?A8?9@AA??Z
p2661
sg20
I167
ss(Vfc064fc73
p2662
V67d4b9808
p2663
tp2664
(dp2665
g7
g8
(g12
S'\x0e\x03\x00\x00'
p2666
tp2667
Rp2668
sg18
VD./1.10//0(!!9t)((((!))(!)vut~suts(!!($/K9188JEJG@88:A::9@Z
p2669
sg20
I71
ss(V26ebd36a0
p2670
V1ee711ad1
p2671
tp2672
(dp2673
g7
g8
(g12
S'\x9b\x02\x00\x00'
p2674
tp2675
Rp2676
sg18
VD.001.(!!9t)!))!))yuvzsv(!!($/K94I9F@9:@?:Z
p2677
sg20
I43
ss(V26ebd36a0
p2678
V7938d5e07
p2679
tp2680
(dp2681
g7
g8
(g12
S'\xcf\x04\x00\x00'
p2682
tp2683
Rp2684
sg18
VD-./0/1./01/.//1/0./.(!!9t(()((!))(!))((!)()(((!)(tyyttvzvtsztsvzvtus~z~z(!!($/KKHH5C2712@G7C8E3:J85?:C9?:8A8?A:?:8:9@A9:A:Z
p2685
sg20
I164
ss(V969ffa43c
p2686
V69721f9a8
p2687
tp2688
(dp2689
g7
g8
(g35
S'\x15\x03\x00\x00\x00\x00\x00\x00'
p2690
tp2691
Rp2692
sg18
VD./0//.01.(!!9t()!)((((((~ztvzssvu(!!($/KD2KG:1I@58?88@A?99Z
p2693
sg20
I70
ss(V895656306
p2694
V7295da469
p2695
tp2696
(dp2697
g7
g8
(g12
S'\xca\x04\x00\x00'
p2698
tp2699
Rp2700
sg18
VD./001.1000..00/./010,--(!!9t()((((((((!))!))!))((((!))!)~stzt~tuvztstvtststt(!!($/K4E1K:6?FC5CH4544965@CFC9::9:A?A9?9@?AA?:?:AZ
p2701
sg20
I176
ss(V969ffa43c
p2702
V6492729ba
p2703
tp2704
(dp2705
g7
g1209
sg18
VD.11.1/(!!9t)!))(!))ztts~s(!!($/K?J93A1?89?:?Z
p2706
sg20
I52
ss(V895656306
p2707
Vfc7e6dc53
p2708
tp2709
(dp2710
g7
g8
(g12
S'\x9c\x02\x00\x00'
p2711
tp2712
Rp2713
sg18
VD,./1/-(!!9t)!))!))(su~uv(!!($/K46IFE?98@?9Z
p2714
sg20
I40
ss(V969ffa43c
p2715
V4215fcf74
p2716
tp2717
(dp2718
g7
g8
(g12
S"'\x03\x00\x00"
p2719
tp2720
Rp2721
sg18
VD,1.0//1/.(!!9t)(!))!)((((~zss~utvsst(!!($/K9B3B89B49A????@:9A98Z
p2722
sg20
I72
ss(V895656306
p2723
V8da43864d
p2724
tp2725
(dp2726
g7
g8
(g12
S'\xd4\x04\x00\x00'
p2727
tp2728
Rp2729
sg18
VD-..1..1.//10/0///1///,(!!9t)(!)()(!)()((!))(!))!)()!))!)vutvu~sssttttsszs~su~zs(!!($/K2H82KBE2D271C581D14F7D??8:@89A999:?@:A@A:@AAAZ
p2730
sg20
I167
ss(V895656306
p2731
Vcfc5668fb
p2732
tp2733
(dp2734
g7
g8
(g12
S'U\x04\x00\x00'
p2735
tp2736
Rp2737
sg18
VD.1.1.0.0/////10(!!9t()(!)()!)()(!))(!)(ytss~utvttstu~uvsss(!!($/KE?1K4K1II4JG?H3C:99A:@A::9@:?::::@Z
p2738
sg20
I125
ss(V26ebd36a0
p2739
V6dcbea938
p2740
tp2741
(dp2742
g7
g8
(g35
S'\r\x03\x00\x00\x00\x00\x00\x00'
p2743
tp2744
Rp2745
sg18
VD/1..1./0(!!9t)(!)(()((ttu~uvtu~us(!!($/K294AEE53@A8??999@?8Z
p2746
sg20
I68
ss(V7fe325b10
p2747
V90337f78
p2748
tp2749
(dp2750
g7
g8
(g35
S'U\x04\x00\x00\x00\x00\x00\x00'
p2751
tp2752
Rp2753
sg18
VD-.0/.0/../.11.//.(!!9t)!)((()(!))!)(()!)()!)y~tzstsvzts~us~tztv(!!($/KJI9:652?23IFB42EB8ED@8A@9A98?9::A@:?Z
p2754
sg20
I133
ss(Ve11621516
p2755
V118646743
p2756
tp2757
(dp2758
g7
g8
(g12
S'M\x03\x00\x00'
p2759
tp2760
Rp2761
sg18
VD/0.1./0/1(!!9t)!))!))(!))(utvsz~ttss(!!($/KB?7GGHJA?AA@?:@??:8Z
p2762
sg20
I75
ss(V26ebd36a0
p2763
V8a89b8e0a
p2764
tp2765
(dp2766
g7
g8
(g12
S' \x04\x00\x00'
p2767
tp2768
Rp2769
sg18
VD./1./1111/1100(!!9t)!))!)(()(!))(((!)yvtsustttsssvuvtu~(!!($/KA99C7JJ8CFA:48::89:@A9??A8AAAA8:Z
p2770
sg20
I126
ss(V969ffa43c
p2771
V5ccbd5a54
p2772
tp2773
(dp2774
g7
g8
(g12
S'u\x04\x00\x00'
p2775
tp2776
Rp2777
sg18
VD//1///..//0/.001-,(!!9t(((()(!)(((((((()!))tus~sz~ztvzvssz~(!!($/K:6D5HHDIDCIIGEDA@:?A9:9889?@:?A?:9Z
p2778
sg20
I134
ss(V26ebd36a0
p2779
V2e080b127
p2780
tp2781
(dp2782
g7
g8
(g12
S'\xcd\x03\x00\x00'
p2783
tp2784
Rp2785
sg18
VD.//10.0..///.-(!!9t(((()((!))((!))(stsus~stutst(!!($/K2?J@EF??CKHA8BA?8:98@@A?A9Z
p2786
sg20
I100
ss(V895656306
p2787
Vb6d152b56
p2788
tp2789
(dp2790
g7
g8
(g12
S'\xba\x02\x00\x00'
p2791
tp2792
Rp2793
sg18
VD-/1./1(!!9t)((!)((tvsuvss(!!($/KCG191E9@?9AAAZ
p2794
sg20
I47
ss(Ve11621516
p2795
V7c03dc967
p2796
tp2797
(dp2798
g7
g8
(g12
S'\xea\x02\x00\x00'
p2799
tp2800
Rp2801
sg18
VD.0/110(!!9ty)(!)(((~ustts~su(!!($/K@@G41CJA8889:99:Z
p2802
sg20
I59
ss(V608890c10
p2803
Ve98b66c8
p2804
tp2805
(dp2806
g7
g8
(g35
S'\xd4\x02\x00\x00\x00\x00\x00\x00'
p2807
tp2808
Rp2809
sg18
VD-1101//1(!!9t)(!)()!))!)vstutt(!!($/K9EE5CK7AA98898Z
p2810
sg20
I66
ss(V969ffa43c
p2811
Vc50fcd626
p2812
tp2813
(dp2814
g7
g8
(g12
S'0\x03\x00\x00'
p2815
tp2816
Rp2817
sg18
VD./.0/1/0-(!!9t((((()!)()ttutsvuvu(!!($/KA@:3JEHK9A8::9?@:AZ
p2818
sg20
I68
ss(V26ebd36a0
p2819
Vadf8e73e2
p2820
tp2821
(dp2822
g7
g8
(g12
S'\xde\x04\x00\x00'
p2823
tp2824
Rp2825
sg18
VD-..1.0/1/1...00000../-(!!9t(()!))!))!)()((!))!))(!))!)((vsusvu~tz~ttstsutvuvtss(!!($/KA@3?J7C:3B1KAH61862IE9@@9:8?99::??99:?:?8:?99Z
p2826
sg20
I166
ss(Ve11621516
p2827
Vdcf321fe7
p2828
tp2829
(dp2830
g7
g8
(g12
S'<\x04\x00\x00'
p2831
tp2832
Rp2833
sg18
VD//..00.1.01/1100,(!!9t)(((((!))(((!))!)(()zsvu~stttsu~tttzs(!!($/KCJB3:HJ51H3A72I8A89@??8@@8A@A8@@8AZ
p2834
sg20
I137
ss(V969ffa43c
p2835
V8c05de81a
p2836
tp2837
(dp2838
g7
g8
(g12
S'0\x04\x00\x00'
p2839
tp2840
Rp2841
sg18
VD,/.01./1.1100.,(!!9t)!)(((()((!))(!))z)suvzvttsusststs~s(!!($/K2:2I@BFAAE9DHBFA8:989@8A98::@::99Z
p2842
sg20
I118
ss(V895656306
p2843
V0af5b84f7
p2844
tp2845
(dp2846
g7
g8
(g35
S'\xf4\x02\x00\x00\x00\x00\x00\x00'
p2847
tp2848
Rp2849
sg18
VD-./11/,(!!9t((((()!)vttuvsss(!!($/KK39:GJF??98@9A9Z
p2850
sg20
I52
ss(V895656306
p2851
V13de55d11
p2852
tp2853
(dp2854
g7
g8
(g12
S'_\x04\x00\x00'
p2855
tp2856
Rp2857
sg18
VD./1/.1.1./00/11(!!9t)(((!))!)()!))!))(!)~z~uts~uvztt~uvzs~us(!!($/K@J9784DD2HIAHE?D8E9898@:9@A?8@??999Z
p2858
sg20
I131
ss(V9f9cff207
p2859
Vb3dab3933
p2860
tp2861
(dp2862
g7
g8
(g12
S'\xa3\x02\x00\x00'
p2863
tp2864
Rp2865
sg18
VD//11,(!!9ty)(((!)tst~s(!!($/KB73IGD:@??9Z
p2866
sg20
I44
ss(Vc2b1dc3b0
p2867
Vcef8e05d
p2868
tp2869
(dp2870
g7
g8
(g35
S'\xb1\x02\x00\x00\x00\x00\x00\x00'
p2871
tp2872
Rp2873
sg18
VD-......(!!9t)!)()!))!)yttst(!!($/KFAEF:42D?99AZ
p2874
sg20
I46
ss(V9f9cff207
p2875
V3a17cce15
p2876
tp2877
(dp2878
g7
g8
(g12
S':\x03\x00\x00'
p2879
tp2880
Rp2881
sg18
VD/1.00.11(!!9t()((!))((ssssustssvzs(!!($/KAH8A4AC7@8?A8?@A8A:9Z
p2882
sg20
I70
ss(Ve11621516
p2883
V05991ea64
p2884
tp2885
(dp2886
g7
g8
(g12
S'c\x04\x00\x00'
p2887
tp2888
Rp2889
sg18
VD/01./1.0//..//..0,(!!9t)!)(((((((()!))!)()(!)ts~stuttt~utssvzvu(!!($/K36:JGA@?24IE::5FDC@98?AA8::8A8@@@:?@Z
p2890
sg20
I135
ss(Vfc064fc73
p2891
V9c9fcd219
p2892
tp2893
(dp2894
g7
g8
(g12
S'\x17\x05\x00\x00'
p2895
tp2896
Rp2897
sg18
VD//10.1/0.10.0/1.1111,,-(!!9t()(!))((!))((!))!))(((!))!))!)~u~z~uvstsztvstssuvz~utv(!!($/K478?7J6A7F6G37J4@?IB9AA?@@:?98@?9?::88@9A:A@8?@Z
p2898
sg20
I183
ss(V26ebd36a0
p2899
V1b28ad04a
p2900
tp2901
(dp2902
g7
g1034
sg18
VD/00//01.1110/1./0/1,,-(!!9t)!))!))!)()!))(((((((!)()!)t(vu~tzvu~tzvu~ztss~tu(!!($/K357849I:733J9BEI?888BD:9A??8??A@:9:88AA?A?@Z
p2903
sg20
I174
ss(V9f9cff207
p2904
V8c2e3b37d
p2905
tp2906
(dp2907
g7
g8
(g12
S'\xba\x02\x00\x00'
p2908
tp2909
Rp2910
sg18
VD,0/1.11(!!9t)!)(((((vttu~zs(!!($/K4J47968::8@@A:Z
p2911
sg20
I58
ss(V3835553b0
p2912
V0b054ae9
p2913
tp2914
(dp2915
g7
g8
(g35
S'H\x03\x00\x00\x00\x00\x00\x00'
p2916
tp2917
Rp2918
sg18
VD-0/11/1.0/(!!9t)!)()(((!))!)vusttvtu~z(!!($/K4K:J754FEK8:?9?:@?::Z
p2919
sg20
I82
ss(V26ebd36a0
p2920
V0f8f73c0b
p2921
tp2922
(dp2923
g7
g8
(g12
S'2\x03\x00\x00'
p2924
tp2925
Rp2926
sg18
VD/01/1././(!!9t)!)(()(!)()tttz~uttv(!!($/KJ9?J6AF7AE?@A?@A98Z
p2927
sg20
I75
ss(V9f9cff207
p2928
V1234cbcbb
p2929
tp2930
(dp2931
g7
g8
(g12
S'\xce\x04\x00\x00'
p2932
tp2933
Rp2934
sg18
VD.///0//1/11110.100-(!!9ty)!))(!))(!))(!))!)()(!))!)tstvtsut~utvz~zvstussvzv(!!($/KJ73E9BC@7:7G:481@94D??:?@?9@:AA@9:8@8:8A98?:Z
p2935
sg20
I166
ss(V9f9cff207
p2936
V8b032e690
p2937
tp2938
(dp2939
g7
g8
(g35
S'\x0f\x04\x00\x00\x00\x00\x00\x00'
p2940
tp2941
Rp2942
sg18
VD,1.1110100.0/1-(!!9t)!))!))!))(!))((!))!)~zss~stu~utstsv(!!($/K5K84A5AAJJKK8E9@@@:9?888A@A8@8Z
p2943
sg20
I123
ss(Ve11621516
p2944
V9ba260291
p2945
tp2946
(dp2947
g7
g1201
sg18
VD.00/0./1(!!9t)(!)()(((ttszss(!!($/K?:BC?EI@@A8A@9Z
p2948
sg20
I62
ss(Ve11621516
p2949
V64fa0f77b
p2950
tp2951
(dp2952
g7
g8
(g12
S'\xe2\x04\x00\x00'
p2953
tp2954
Rp2955
sg18
VD00...011//0010110-,(!!9ty)((!)((()(!)()!))!))!))!)t~tzt~uts~ssz~szss~u(!!($/KFBD5A?K@F9HHK:64IBFD@:@:@A9????A@A@99888Z
p2956
sg20
I160
ss(V26ebd36a0
p2957
Vd6d670762
p2958
tp2959
(dp2960
g7
g8
(g12
S'\x89\x02\x00\x00'
p2961
tp2962
Rp2963
sg18
VD-..1000(!!9t)(!)((((~szs(!!($/K9D41DD6?::8Z
p2964
sg20
I51
ss(Vbb258e2b0
p2965
V02b9c485
p2966
tp2967
(dp2968
g7
g8
(g35
S'\xc0\x04\x00\x00\x00\x00\x00\x00'
p2969
tp2970
Rp2971
sg18
VD/.0.01.///0/01.00/11-,-(!!9ty(()!)((()(!))((!))((!))!)()!)t~sztstt~ssstu~szvsu~(!!($/K72G8H55FAE256K22A21A19CCA9998@A:::?:?:89A89A8Z
p2972
sg20
I178
ss(V9f9cff207
p2973
V42c409b34
p2974
tp2975
(dp2976
g7
g8
(g12
S'[\x03\x00\x00'
p2977
tp2978
Rp2979
sg18
VD.1..1//1/(!!9t()(((!)(((tvuvzststvss(!!($/KD3A@5F?BH?A9A9:??AA??Z
p2980
sg20
I75
ss(Ve11621516
p2981
Vfd923e5f9
p2982
tp2983
(dp2984
g7
g8
(g12
S'\x87\x02\x00\x00'
p2985
tp2986
Rp2987
sg18
VD.01.0(!!9t)!)(()tszvs(!!($/K59CJ1A@9AAZ
p2988
sg20
I41
ss(V895656306
p2989
V5b86f4ce3
p2990
tp2991
(dp2992
g7
g8
(g35
S'\x1a\x05\x00\x00\x00\x00\x00\x00'
p2993
tp2994
Rp2995
sg18
VD.1/0..1...1111.///./-(!!9t)(!)((()(!))!)(((((((((t(~sttusstvstzvztstvutvtus(!!($/KD13D852IBFCD3:H3@KCCB:BA?@@9?A98A:::@8@88??A8AZ
p2996
sg20
I168
ss(V26ebd36a0
p2997
V0b6763861
p2998
tp2999
(dp3000
g7
g8
(g35
S'*\x03\x00\x00\x00\x00\x00\x00'
p3001
tp3002
Rp3003
sg18
VD-/0/...//-(!!9t)!)()(!))(!)t(sts~sssss(!!($/KG3I2@4J42C?@:?8:99:?Z
p3004
sg20
I69
ss(Ve11621516
p3005
Vf9e7ce846
p3006
tp3007
(dp3008
g7
g8
(g12
S'\x1b\x04\x00\x00'
p3009
tp3010
Rp3011
sg18
VD..11.1100.1.0/,(!!9t)!)(()(!)(((()!))!)~zttsts~z~uvuvust(!!($/K9JGD?C5E7H72D8C?8:999?8A@??98@A9Z
p3012
sg20
I123
ss(V969ffa43c
p3013
V170fa57b3
p3014
tp3015
(dp3016
g7
g8
(g12
S'\xcd\x02\x00\x00'
p3017
tp3018
Rp3019
sg18
VD-0..0/1(!!9t)(!))(!)(s~tttu(!!($/KIB2KI@699@A?8Z
p3020
sg20
I54
ss(Vfc064fc73
p3021
V8a8714c41
p3022
tp3023
(dp3024
g7
g8
(g12
S'~\x03\x00\x00'
p3025
tp3026
Rp3027
sg18
VD-/0/..0100(!!9t)(!))!))!))(!)vut~u~sussv(!!($/KGEFJIIG65FA9@9?:8A99AZ
p3028
sg20
I78
ss(Ve11621516
p3029
V01a1721be
p3030
tp3031
(dp3032
g7
g8
(g12
S'\xf5\x04\x00\x00'
p3033
tp3034
Rp3035
sg18
VD-000011./00.01/.00//-(!!9t)(((!)(()!))!)((()!)()!))z)ussvz~ztstst~tzvu~stuv(!!($/K@CBGECGJ32D5C62B:6GH9@@9::9:?898:@@A?:A9A889Z
p3036
sg20
I171
ss(V895656306
p3037
V1f9f88565
p3038
tp3039
(dp3040
g7
g8
(g12
S'\xd0\x03\x00\x00'
p3041
tp3042
Rp3043
sg18
VD..1.0.001110-(!!9t)((!))!))!))!)()(u~sssusvzs~zst(!!($/K3@9H21JCH6KIE?A?:?A88AA98A:Z
p3044
sg20
I105
ss(V9f9cff207
p3045
V0019ab5ed
p3046
tp3047
(dp3048
g7
g8
(g12
S'G\x04\x00\x00'
p3049
tp3050
Rp3051
sg18
VD-1./10/.0./1.1//0(!!9t()(!))!))((!)(()!)(((~z~szsvttu~stzsvts(!!($/K3E5KJDDA564778:HC::8?@?89A98AA@A89?Z
p3052
sg20
I137
ss(Ve11621516
p3053
Vd57a5c443
p3054
tp3055
(dp3056
g7
g1768
sg18
VD,0//..101-(!!9t)((((!))(((tutsvzvs(!!($/KCI@I5I4@4F:@A@@@8:Z
p3057
sg20
I72
ss(V969ffa43c
p3058
Va63b4c603
p3059
tp3060
(dp3061
g7
g8
(g35
S'6\x04\x00\x00\x00\x00\x00\x00'
p3062
tp3063
Rp3064
sg18
VD.0111..//111/101(!!9t((()!)(((()!)()!))(sztsvsttsu~sutss~tss(!!($/K832E78:E42H:7F:B@8:::::89??A8:@A@8?8Z
p3065
sg20
I141
ss(V895656306
p3066
V718efec58
p3067
tp3068
(dp3069
g7
g8
(g12
S'4\x03\x00\x00'
p3070
tp3071
Rp3072
sg18
VD,1/1./.1..(!!9t)((((!))!)()sstttstsuv(!!($/KE838GK8659A@A8@8@:?:Z
p3073
sg20
I75
ss(Ve11621516
p3074
V29b89ffd7
p3075
tp3076
(dp3077
g7
g8
(g12
S'O\x04\x00\x00'
p3078
tp3079
Rp3080
sg18
VD1.10111...00.00(!!9ty()!)(()!)((()((!)(ttvutvtutvtz~sstu(!!($/KC8:?7AEDGKII9CCA9:@:?899A8?:@:?A8Z
p3081
sg20
I131
ss(V50bda9ea0
p3082
V796eff5f
p3083
tp3084
(dp3085
g7
g1478
sg18
VD-.0/1.11110.11.10-(!!9t(()!))((!))!))!)(((()!)~z~tzttttsstvuss~ttsu(!!($/K2H5@6H44JBKD5J628B9@@A@8?A8A@@??@8@A::@Z
p3086
sg20
I155
ss(V969ffa43c
p3087
V04c329daf
p3088
tp3089
(dp3090
g7
g8
(g12
S'C\x05\x00\x00'
p3091
tp3092
Rp3093
sg18
VD-/10.//..0/..0..0.00//.--(!!9t)(!)((((()!)(()!))!))!)(()!))y!)(~sut~uss~utsstvzsst~usss(!!($/KE81:K8CBB@EA682297C93:?B9C9::8A?9A9A@:9::@:A:?9AAAZ
p3094
sg20
I181
ss(Ve11621516
p3095
Vede430663
p3096
tp3097
(dp3098
g7
g8
(g12
S'X\x04\x00\x00'
p3099
tp3100
Rp3101
sg18
VD/0.1/0./.1101//..-(!!9t)(!)((()(!))(!))(((!)~!)vz~u~sztsvtz~tzs(!!($/KEFD5@C8:3E57H@C4DFB@A:AA?@898:99:@?Z
p3102
sg20
I142
ss(Vfc064fc73
p3103
V9588e1ead
p3104
tp3105
(dp3106
g7
g8
(g12
S'\xc8\x04\x00\x00'
p3107
tp3108
Rp3109
sg18
VD..1010/1.01../1/1-(!!9t)(!))(((!)()((!)()((!)yyvtussvzsvtssus~tust~u(!!($/K3@4CKJB9843CH48J8CFC?8?A@:9@?@?:@?A:@9?:@Z
p3110
sg20
I152
ss(V969ffa43c
p3111
V6151cde2a
p3112
tp3113
(dp3114
g7
g464
sg18
VD/0001111(!!9t)!)(()((!)~tszvssusv(!!($/K5BA5J3BGA:A8:@8@9@Z
p3115
sg20
I74
ss(V895656306
p3116
V260fa0f21
p3117
tp3118
(dp3119
g7
g8
(g12
S'\x04\x05\x00\x00'
p3120
tp3121
Rp3122
sg18
VD./1.011.11..0//.1./.-(!!9t(((()!))!)()!))(((!)(()!)tt)z~tssssuss~tsu~tz~tus(!!($/K13JI2GB8G:J5JKK2CA74:9A@::9?@?@:9@::@9A@::?9Z
p3123
sg20
I167
ss(V895656306
p3124
V0aa2dc472
p3125
tp3126
(dp3127
g7
g8
(g12
S'\x1a\x04\x00\x00'
p3128
tp3129
Rp3130
sg18
VD-//1.100/.10//01--(!!9t((()!))!))(!))(((!))((zstvtzss~zss~tst(!!($/K@I5C9A3K?37?K1G4?8:88:8@998:@898:9Z
p3131
sg20
I139
ss(V969ffa43c
p3132
V50a0f78d0
p3133
tp3134
(dp3135
g7
g8
(g12
S'\xd0\x04\x00\x00'
p3136
tp3137
Rp3138
sg18
VD/00000.///11/00.0/./-(!!9ty)(!)((()!)()!)(()((((!)()zvz~tz~suvzttttt~uts(!!($/K1FG66H478:E1J3H?H2?K59A8@A@9?@9AA?@:AA9AA?Z
p3139
sg20
I172
ss(Vfc064fc73
p3140
V4ad2971f1
p3141
tp3142
(dp3143
g7
g8
(g12
S'\x07\x05\x00\x00'
p3144
tp3145
Rp3146
sg18
VD-0101/0011/0/00.0.0-(!!9t)(((!)(((()(((((!)()((zvzss~ut~tsuvu~usvz~uvu(!!($/KK3@DH??J5HI7KE29EH1CA8A9A9??A88@?9:A9:9:A@@Z
p3147
sg20
I165
ss(V895656306
p3148
Vc303e3e80
p3149
tp3150
(dp3151
g7
g8
(g12
S'\xa9\x02\x00\x00'
p3152
tp3153
Rp3154
sg18
VD..00/11(!!9t)!)()!))!)~ztvt(!!($/K5@BBH1A:?9?@Z
p3155
sg20
I57
ss(V26ebd36a0
p3156
Vf3ead5208
p3157
tp3158
(dp3159
g7
g8
(g12
S'\xd1\x04\x00\x00'
p3160
tp3161
Rp3162
sg18
VD.0.//.0../010./011-(!!9t()!)()!)()(((!))(!)()!)y(tvutsssttvtu~suttssvtu(!!($/KE?JI2649GD?CH53?A:8B@A@99??:@A:9:A@8@??8:?Z
p3163
sg20
I153
ss(Vfc064fc73
p3164
V881a77053
p3165
tp3166
(dp3167
g7
g8
(g12
S'\xee\x03\x00\x00'
p3168
tp3169
Rp3170
sg18
VD/.1/1./11./1..-(!!9t)!))!))!)((()(!)(((tvtzvzvsutvtu~(!!($/KEC7:1E:FJF65@:D8:A@:9?:@A@?A:Z
p3171
sg20
I116
ss(Vfc064fc73
p3172
Vdf1811cf8
p3173
tp3174
(dp3175
g7
g8
(g35
S'\xa2\x03\x00\x00\x00\x00\x00\x00'
p3176
tp3177
Rp3178
sg18
VD/11011001100/-(!!9t(()!))!)(()!)(()(ttz~suttsttt~(!!($/KJ3H6A?C493825FA9:@A99A8:8@?Z
p3179
sg20
I124
ss(V26ebd36a0
p3180
V05cd65b53
p3181
tp3182
(dp3183
g7
g8
(g12
S'\xb6\x04\x00\x00'
p3184
tp3185
Rp3186
sg18
VD/1.0.1.1.0//11./00.1-(!!9ty)!)(()!))!))!))((((((!)()!)t~zts~sztt~stus~szv(!!($/KJ9@8BDH8@G9D3D:2?75EB??@:?A8?9:8:?8:?98A:Z
p3187
sg20
I170
ss(V895656306
p3188
V254d2b652
p3189
tp3190
(dp3191
g7
g8
(g12
S'9\x03\x00\x00'
p3192
tp3193
Rp3194
sg18
VD/1.1...0.,(!!9ty(((((()((!)tst~stuvu(!!($/KBBC25H8@97AA@9@:??A:Z
p3195
sg20
I75
ss(V9f9cff207
p3196
V26092442a
p3197
tp3198
(dp3199
g7
g8
(g35
S'\xf7\x03\x00\x00\x00\x00\x00\x00'
p3200
tp3201
Rp3202
sg18
VD...0..00/.../..(!!9t)((((((!))((((((z~stsuvuvzt~uvusv(!!($/KAD58DE:8D587IB2:98889:99A8A8:8?9Z
p3203
sg20
I108
ss(V895656306
p3204
V1c1d4e846
p3205
tp3206
(dp3207
g7
g8
(g12
S'\xc8\x04\x00\x00'
p3208
tp3209
Rp3210
sg18
VD//0/.10.1./0.111-(!!9t(()(!)()((!)(()(!)(~(zvsssz~tz~stzsvuv(!!($/KCDHFEHKIIIHJHA7DDE8:AA:?:@@9@:AA??AZ
p3211
sg20
I138
ss(V9f9cff207
p3212
Vcc483b014
p3213
tp3214
(dp3215
g7
g8
(g35
S'\xc2\x04\x00\x00\x00\x00\x00\x00'
p3216
tp3217
Rp3218
sg18
VD-.0/1.00/1../..10.00/(!!9t((()!))(!)()(!))((!))!)(((ytsvtz~zstss~u~ststtst(!!($/K:?F@B3?4496D1A@CDFBC2?9?:8A@:9:9:8@A8?99:AAZ
p3219
sg20
I167
ss(V26ebd36a0
p3220
V8e2c8533a
p3221
tp3222
(dp3223
g7
g8
(g12
S'2\x03\x00\x00'
p3224
tp3225
Rp3226
sg18
VD/.11//10/-(!!9t((((()!))(z(~stuttvus(!!($/KC93E217I@B@@AAAA998:Z
p3227
sg20
I81
ss(V9f9cff207
p3228
Vd999f9324
p3229
tp3230
(dp3231
g7
g8
(g12
S'\x18\x04\x00\x00'
p3232
tp3233
Rp3234
sg18
VD-/0.01/01001/(!!9t)(!))((((((((!)~zt~stsuvuss~uvu~ts(!!($/K635A6B7C5K7JICE?::9A9:88A@:A99AAZ
p3235
sg20
I115
ss(V9f9cff207
p3236
Vf5609d94e
p3237
tp3238
(dp3239
g7
g8
(g12
S'\xb6\x02\x00\x00'
p3240
tp3241
Rp3242
sg18
VD-1011(!!9t)(!))!)ssvsuts(!!($/K?GF3K?@8@8?9Z
p3243
sg20
I45
ss(V26ebd36a0
p3244
V2c33a4d12
p3245
tp3246
(dp3247
g7
g8
(g12
S'\xd7\x04\x00\x00'
p3248
tp3249
Rp3250
sg18
VD,/0./00/0/.0/1././10-(!!9t)(!))(!))(!)(((()!))((!))!)vus~utvstut~utvzvzt~(!!($/K@DJI8HAEBCEJ6257H8J9898A:@8@9:989:?:AA99?Z
p3251
sg20
I159
ss(V26ebd36a0
p3252
Vde5f9b611
p3253
tp3254
(dp3255
g7
g8
(g12
S'\xd5\x04\x00\x00'
p3256
tp3257
Rp3258
sg18
VD111//.1./1...//1.,-(!!9ty)((!)()!)()(!))((!))(!))tszsvttzsvut~ztsstv(!!($/KG66H3HJKBK6IBG7B7F@E:A9@9?@9??A8?:@A@??Z
p3259
sg20
I149
ss(V895656306
p3260
V0d93e5af0
p3261
tp3262
(dp3263
g7
g8
(g12
S'K\x03\x00\x00'
p3264
tp3265
Rp3266
sg18
VD..1.//1.0(!!9t((((()!)()stuvzsss~ss(!!($/K8H6GDG7H59A8::?A@:@:Z
p3267
sg20
I71
ss(Vfc064fc73
p3268
V4e1fc9f8a
p3269
tp3270
(dp3271
g7
g8
(g35
S'\xe1\x04\x00\x00\x00\x00\x00\x00'
p3272
tp3273
Rp3274
sg18
VD-/0/101/./1/1/1../001(!!9t)((!)((()!))!)(((((((()(ytutss~tutvtsz~tzss~ztv(!!($/KB95337BHE@CH8BJ3F535@@AA88@8@@?A:9?9:8@?@?:@Z
p3275
sg20
I177
ss(V042b51ccd
p3276
V932cc3d9a
p3277
tp3278
(dp3279
g7
g8
(g35
S'\x82\x03\x00\x00\x00\x00\x00\x00'
p3280
tp3281
Rp3282
sg18
VD//0./.1101(!!9t(((((()!))!)vussssstvssuvu(!!($/K:9IJ42E8@@:::?@8A:9@9?A:Z
p3283
sg20
I83
ss(V969ffa43c
p3284
V366ca19d2
p3285
tp3286
(dp3287
g7
g8
(g12
S'\xfc\x04\x00\x00'
p3288
tp3289
Rp3290
sg18
VD.0.0011.01.11./1./.0-(!!9ty()!))!))!))!))(!)()((((((!)tyvstutt~u~u~tszttstt~(!!($/K13IFD@F3KA?A91B7H5I:::AF?@@A@8:9@:@8@A9@89@9Z
p3291
sg20
I177
ss(Ve11621516
p3292
Va093bd548
p3293
tp3294
(dp3295
g7
g8
(g12
S'\xd6\x04\x00\x00'
p3296
tp3297
Rp3298
sg18
VD-1/1/1/1100001//10(!!9t((((()((!))!))(!))!))(tzs~suvussvstz~zvszvuvzvsu(!!($/KK@B92A2I1AB487:CABA::??899?88::????A@99@@A99Z
p3299
sg20
I162
ss(V969ffa43c
p3300
Ve0d7a63db
p3301
tp3302
(dp3303
g7
g8
(g12
S'\x8b\x05\x00\x00'
p3304
tp3305
Rp3306
sg18
VD-.000/..0/0..11..0.1.0.0-(!!9t()(!)()(!))(!)()!)()(!)(()(((!)vstttuvutvuvtttssusttstsvst(!!($/KJA51DC81?E3EIG9?7J?H@K:7@A@88AA@:8@@9?:8@@898?8:8@?9Z
p3307
sg20
I190
ss(Vfc064fc73
p3308
Vc5c4ff390
p3309
tp3310
(dp3311
g7
g8
(g12
S'\x80\x04\x00\x00'
p3312
tp3313
Rp3314
sg18
VD-00./.1/1111////.-(!!9t)(!)()(((!))((!)()!))y(su~zs~zvtuvuvszvszv(!!($/KA?78F@9K731G85G6BEAA:A?:?:@8A?A??@?8@8Z
p3315
sg20
I144
ss(Ve11621516
p3316
V43f1f4fc7
p3317
tp3318
(dp3319
g7
g8
(g35
S'\x13\x05\x00\x00\x00\x00\x00\x00'
p3320
tp3321
Rp3322
sg18
VD-00//0./1.//.100/11-(!!9t()(((!))!))((!))!))((!))y!)tsvttsstus~sutt~u~u~z~(!!($/KE@I731BKAG61JKBIGKHD?@A@89@??8:?:998A:8@??9Z
p3323
sg20
I165
ss(V969ffa43c
p3324
Vdfc63b4a7
p3325
tp3326
(dp3327
g7
g8
(g12
S'Y\x03\x00\x00'
p3328
tp3329
Rp3330
sg18
VD-1/.0././.,(!!9t)!))!)(()!))!))z~szsttvu(!!($/KF9DKGDH:99C9:@9::@88Z
p3331
sg20
I76
ss(V969ffa43c
p3332
V045ca25ee
p3333
tp3334
(dp3335
g7
g8
(g35
S'\n\x03\x00\x00\x00\x00\x00\x00'
p3336
tp3337
Rp3338
sg18
VD/./..1/0(!!9t)!))(!))!))z~stu~z~s(!!($/KDC2A6KA4B9@?:?@@?Z
p3339
sg20
I65
ss(V9f9cff207
p3340
Vd27ad7c30
p3341
tp3342
(dp3343
g7
g8
(g12
S'\xde\x02\x00\x00'
p3344
tp3345
Rp3346
sg18
VD-//11.1.(!!9t)!)(()!)((t~ttsu~tu(!!($/K:283K118:8?:@??8AZ
p3347
sg20
I67
ss(V9f9cff207
p3348
V1ada980e9
p3349
tp3350
(dp3351
g7
g8
(g35
S'\xbc\x03\x00\x00\x00\x00\x00\x00'
p3352
tp3353
Rp3354
sg18
VD-10/0.1.1.1-(!!9t)(((!))!))!))!)(s~uvus~zsssvtu(!!($/K3EAI6H14IJK8@A8A@98:?:?@?:Z
p3355
sg20
I95
ss(Ve11621516
p3356
V24c862ccf
p3357
tp3358
(dp3359
g7
g8
(g12
S'\x01\x05\x00\x00'
p3360
tp3361
Rp3362
sg18
VD./..00/...00.1/01100.(!!9t)(!))!)((()!)()(!))!)()(!)(tystvzsvuvzvz~zvtsu~zsssvz(!!($/K1D914H2@6G94878C2EFB3AA@@@A9@:?8?:A8@@A??@??9?@Z
p3363
sg20
I172
ss(V9f9cff207
p3364
Vdbdf68ac7
p3365
tp3366
(dp3367
g7
g8
(g12
S'\xbb\x02\x00\x00'
p3368
tp3369
Rp3370
sg18
VD/1.0/1(!!9ty(()(((u~utv(!!($/K7HG1FJ@A89?:Z
p3371
sg20
I52
ss(V3e2dc0e10
p3372
V591d0f42
p3373
tp3374
(dp3375
g7
g8
(g35
S'4\x05\x00\x00\x00\x00\x00\x00'
p3376
tp3377
Rp3378
sg18
VD-.0.11010011./.1.010//-(!!9t(()!)(((((((()!))(!)()(!))!)tt~zsttsst~ssttz~tuvtz~tsu(!!($/K?FHBBC15FA?5266H85C741CB@F89AA???A:9:@9:@A@8?99@?Z
p3379
sg20
I194
ss(V895656306
p3380
V2848e0513
p3381
tp3382
(dp3383
g7
g8
(g12
S'a\x05\x00\x00'
p3384
tp3385
Rp3386
sg18
VD.01/01.11/..11/1100.(!!9ty((((()!)(()(((!))((!)((yyt~tsutsvtz~tsut~sus~tzvu(!!($/KG3J9BJ41IEJGDHH86CH8AF8:A8:?9AA?@8@8@A@:AA9:9?8Z
p3387
sg20
I183
ss(Vfc064fc73
p3388
V75e2c17ef
p3389
tp3390
(dp3391
g7
g8
(g35
S'\xb6\x03\x00\x00\x00\x00\x00\x00'
p3392
tp3393
Rp3394
sg18
VD//01/1./0./1/,(!!9t((((()(!)()(!)()tttustvtu~u~t(!!($/K@?@9GB7DI542E:?88@A?99:9@A@Z
p3395
sg20
I110
ss(Ve11621516
p3396
Vd573ebc5a
p3397
tp3398
(dp3399
g7
g8
(g12
S'\x8a\x02\x00\x00'
p3400
tp3401
Rp3402
sg18
VD-.10//0(!!9t)!))((!))ttt(!!($/K1EKH24G8A8Z
p3403
sg20
I51
ss(Vfc064fc73
p3404
V7ca363b09
p3405
tp3406
(dp3407
g7
g8
(g35
S'&\x05\x00\x00\x00\x00\x00\x00'
p3408
tp3409
Rp3410
sg18
VD/10.0.11110/.01/00//0--(!!9t()(!))((!)()(!)()!))(!))(!))t!)tvststzt~z~z~sztststs(!!($/KFDB6@81K1BHK3FK?3GBI3F@D?:@98:A8:@?@98?9@?@A:Z
p3411
sg20
I189
ss(V969ffa43c
p3412
V53873c74d
p3413
tp3414
(dp3415
g7
g8
(g12
S'\xf6\x04\x00\x00'
p3416
tp3417
Rp3418
sg18
VD.10.11..1/00.0../1/,(!!9t()!))!)(()!)((()(((!))!)~t!)vzsvz~sztvu~u~utsvu~(!!($/KHHB2C@JCAID?E3F5H:IAAB?@9?:A889:9@?9999?88Z
p3419
sg20
I159
ss(Vfc064fc73
p3420
Vb6f691256
p3421
tp3422
(dp3423
g7
g8
(g35
S',\x05\x00\x00\x00\x00\x00\x00'
p3424
tp3425
Rp3426
sg18
VD-11111/10../1.0//0/.//-(!!9t(((((((()((((!))!)()!))(!)t(ytvsszvtuvu~z~tuvzsstt~zv(!!($/KIB1?@839DG1E97?8:4F362EBD@?A8@@@A?@:?:@:?@898A98@Z
p3427
sg20
I190
ss(Vfc064fc73
p3428
Va5ad63eba
p3429
tp3430
(dp3431
g7
g8
(g12
S'$\x04\x00\x00'
p3432
tp3433
Rp3434
sg18
VD.0.1.1111/1.1/0.0-(!!9t)!)()(!))!))!)()((((!))tszsvtut~zvstttts(!!($/K?2C?C?F97C2798B66:?@::8A@:999::8?A9Z
p3435
sg20
I147
ss(V9f9cff207
p3436
V9879d1301
p3437
tp3438
(dp3439
g7
g8
(g12
S'\xe7\x03\x00\x00'
p3440
tp3441
Rp3442
sg18
VD..1/..1010/.10(!!9ty((((()!)()((!))(ystzsts~ttsz~z(!!($/K4I?A4?F:BEAIB3I9?8@:8??9998@9Z
p3443
sg20
I120
ss(Vfc064fc73
p3444
V256dc1fc9
p3445
tp3446
(dp3447
g7
g8
(g12
S'\x9f\x04\x00\x00'
p3448
tp3449
Rp3450
sg18
VD/.0/.001//100001/0.--(!!9t)(!))(!))!))(!))!))(!)(((((~szvzt~u~szst~sstu~(!!($/K8HIABH@7DB??133D493AD@A?88@@@99@:@8?A9??Z
p3451
sg20
I165
ss(V9f9cff207
p3452
Vc7e43edb8
p3453
tp3454
(dp3455
g7
g8
(g12
S'\xe8\x02\x00\x00'
p3456
tp3457
Rp3458
sg18
VD,11/0/(!!9t)!))!)()zt~ussts(!!($/K:7IFAJF::A8@?8Z
p3459
sg20
I52
ss(V26ebd36a0
p3460
V00178e3ed
p3461
tp3462
(dp3463
g7
g8
(g12
S'\n\x03\x00\x00'
p3464
tp3465
Rp3466
sg18
VD/..01.00/(!!9t((((((()(zvtsszvst(!!($/KE46@6I9@?:A8A98?89Z
p3467
sg20
I71
ss(V895656306
p3468
Vb795c9e89
p3469
tp3470
(dp3471
g7
g8
(g35
S'\x83\x04\x00\x00\x00\x00\x00\x00'
p3472
tp3473
Rp3474
sg18
VD,/.00/./0./.01.//1(!!9t)!))(((((((((!))!))!)(y~su~u~tssutvusvssz~(!!($/KH3J9K7E1G@H4BC@989988@9999A8:A898:AA9AZ
p3475
sg20
I139
ss(V895656306
p3476
Vd140a451a
p3477
tp3478
(dp3479
g7
g8
(g35
S'\xc3\x02\x00\x00\x00\x00\x00\x00'
p3480
tp3481
Rp3482
sg18
VD11.11.1(!!9ty()!))(((ttsszs(!!($/KHAA12J69:@:88:Z
p3483
sg20
I64
ss(V969ffa43c
p3484
V8284ac232
p3485
tp3486
(dp3487
g7
g8
(g12
S'\x1a\x05\x00\x00'
p3488
tp3489
Rp3490
sg18
VD/001/1/01///.00//011,-(!!9t((()(!))((!)(()(((!))((!)tt)zstt~stztvu~uvtussvzsvu(!!($/K:94A11FGH9?CG:D37C?3@EDF?99:A9@8?:99@@?A89::9A8Z
p3491
sg20
I181
ss(V895656306
p3492
V5a0119805
p3493
tp3494
(dp3495
g7
g8
(g12
S'\xab\x04\x00\x00'
p3496
tp3497
Rp3498
sg18
VD,.1/10101././11101,-(!!9t)!)()(!))!)((()!))(!)()!))z~tzttssvzsvuvzt~uv(!!($/KDI56H9III6A@G15H@IA9?888?@A8@9::A889:99Z
p3499
sg20
I159
ss(Vfc064fc73
p3500
V77c14867b
p3501
tp3502
(dp3503
g7
g8
(g12
S'-\x05\x00\x00'
p3504
tp3505
Rp3506
sg18
VD-.//./001110/./01/./0--(!!9t)!)(((()!))(!))!)(()!))!)((~t!)(~sz~z~utsvussvtzss~zvt(!!($/KB9KC4:H64J7D6781A3IGBFC@:8A89?@:8A?A:9?9@?::?@AZ
p3507
sg20
I180
ss(V9f9cff207
p3508
V1256f31b8
p3509
tp3510
(dp3511
g7
g8
(g12
S'?\x04\x00\x00'
p3512
tp3513
Rp3514
sg18
VD.010/0.111.111-(!!9t()!))(!))!))!)()(!)(ssvszt~ssus~stttu(!!($/KA6CK6G5B9JE?AKF?@::9@?@@??88??@AZ
p3515
sg20
I128
ss(V9f9cff207
p3516
V5839b7b58
p3517
tp3518
(dp3519
g7
g8
(g12
S'H\x03\x00\x00'
p3520
tp3521
Rp3522
sg18
VD1/./100./1(!!9ty()(!))(!)(((tvtztttvt(!!($/KED:3BD@DC:8::?A?A:::Z
p3523
sg20
I87
ss(V26ebd36a0
p3524
Vde75a3cb5
p3525
tp3526
(dp3527
g7
g8
(g12
S',\x05\x00\x00'
p3528
tp3529
Rp3530
sg18
VD..0./1//../.00.00/.1.0-(!!9ty()(!))(!))!))(!))(!)()(!)(((y)tststzttvz~utvssu~u~ut(!!($/KK6K:6@D??BH8@G@AAC3F15?@C99?:9:?@?@998A@9:?989:Z
p3531
sg20
I179
ss(V26ebd36a0
p3532
Vff0d9f9ac
p3533
tp3534
(dp3535
g7
g8
(g12
S'\xfa\x04\x00\x00'
p3536
tp3537
Rp3538
sg18
VD1/0/./00101...1//0/1,-(!!9ty()!)(((()!))!))!))!)()!)(()y!)vssttstz~tztvsztts~zv(!!($/K2D66BIG:C759?KK2G1H:89E98@?99889?A8:@@A8:99:AZ
p3539
sg20
I180
ss(V969ffa43c
p3540
Ve3e38f8f5
p3541
tp3542
(dp3543
g7
g8
(g12
S'\xb5\x04\x00\x00'
p3544
tp3545
Rp3546
sg18
VD-/10./0.10/1/100011--(!!9t(((()(!)(()((!)()(((!))(ststszvtu~suss~z~tzv(!!($/K3A:G4JD:B2D311GCJCIAA:98A?:8:999?9A9?8@@:Z
p3547
sg20
I168
ss(Vac42758ee
p3548
V0b5c920e3
p3549
tp3550
(dp3551
g7
g8
(g35
S'\xab\x04\x00\x00\x00\x00\x00\x00'
p3552
tp3553
Rp3554
sg18
VD//0/010101110/0/10(!!9t)(((!))((!)(((()(!)()z~ssz~ut~tzt~zsvz~tszv(!!($/KKGC@G:FBI52642G1GD@8@?89:@98?9:99?9?A??@Z
p3555
sg20
I166
ss(V969ffa43c
p3556
Vee9d8dde1
p3557
tp3558
(dp3559
g7
g8
(g35
S'\x8a\x04\x00\x00\x00\x00\x00\x00'
p3560
tp3561
Rp3562
sg18
VD.10.0/0./0./01..0/1-(!!9t(()((!)(((()!)()((!)()ty!)~uttststvz~stszs~tu(!!($/K37G173G11D33JE5AC3G::?8A8?::9?A8@8?@@AA8@Z
p3563
sg20
I161
ss(V969ffa43c
p3564
V0082806b7
p3565
tp3566
(dp3567
g7
g8
(g12
S'\xdf\x02\x00\x00'
p3568
tp3569
Rp3570
sg18
VD../0.0..1(!!9t()(!)(((((vzvu~ss(!!($/K8:2J4J744A99A8@?Z
p3571
sg20
I64
ss(Vfc064fc73
p3572
V4e618c1b8
p3573
tp3574
(dp3575
g7
g8
(g12
S'f\x05\x00\x00'
p3576
tp3577
Rp3578
sg18
VD/...0../10//0/00.0/.01(!!9t)(!)(()(!)((()!))(((!))!)((yytt~sszs~tuvststssssssusss(!!($/KCFJ?F14K?:HJH52AJ:EGE3::?8A8@88@A??:@A8??A8889988Z
p3579
sg20
I177
ss(V26ebd36a0
p3580
V6e481cada
p3581
tp3582
(dp3583
g7
g8
(g35
S'-\x05\x00\x00\x00\x00\x00\x00'
p3584
tp3585
Rp3586
sg18
VD//.0.1.//000/.1../0.--(!!9ty()(((!))((!))!)(()!))((!)~!))sstzs~u~stssttsz~ssu~s(!!($/KKA2FG:G6F5FJ7JB478I81B??@??9@?@:@89AA?:??A8A98Z
p3587
sg20
I169
ss(Ve11621516
p3588
V209bd4d6f
p3589
tp3590
(dp3591
g7
g8
(g12
S'\xd5\x02\x00\x00'
p3592
tp3593
Rp3594
sg18
VD/00/1/.1(!!9ty((()((!))u~su~sz(!!($/K6@47G287@?@:@88:Z
p3595
sg20
I68
ss(V26ebd36a0
p3596
V7b50355b8
p3597
tp3598
(dp3599
g7
g8
(g35
S'\xc9\x02\x00\x00\x00\x00\x00\x00'
p3600
tp3601
Rp3602
sg18
VD/.1.//(!!9t)!)((()sssusvt(!!($/KAA2G:K9?A@?:?Z
p3603
sg20
I46
ss(Ve11621516
p3604
V45cd69459
p3605
tp3606
(dp3607
g7
g72
sg18
VD-/00/11/10//,(!!9t)(!)(()!)()(!)(y)uvszvz~ttzvss(!!($/KD82A73AFBG:9B@??:89@8:A:8@AZ
p3608
sg20
I106
ss(Vfc064fc73
p3609
V94bd733d8
p3610
tp3611
(dp3612
g7
g8
(g12
S'I\x03\x00\x00'
p3613
tp3614
Rp3615
sg18
VD/.0/01.111(!!9t)!)((((()!)(~tstutsvtss(!!($/K2??@6I@:CG@889:89A:?@Z
p3616
sg20
I86
ss(Vfc064fc73
p3617
V7a0ae78d8
p3618
tp3619
(dp3620
g7
g8
(g12
S'\xd3\x04\x00\x00'
p3621
tp3622
Rp3623
sg18
VD./.0/001./111/101-(!!9t)!)()!))!)((()!))!)(()z(~zts~ussvsszvtszs~us~t(!!($/K?22AFCF994@K73III?AE9A@:???@@AA?A:@?:8??9Z
p3624
sg20
I155
ss(V9f9cff207
p3625
V362913345
p3626
tp3627
(dp3628
g7
g8
(g12
S'\x9e\x02\x00\x00'
p3629
tp3630
Rp3631
sg18
VD//00/(!!9t)!))!)(~zs~zs(!!($/KDE3G3B:A9A?Z
p3632
sg20
I44
ss(V26ebd36a0
p3633
V534336644
p3634
tp3635
(dp3636
g7
g8
(g12
S'\xf6\x04\x00\x00'
p3637
tp3638
Rp3639
sg18
VD..0/0101///01/11.1-(!!9t()(((!))!)()((((((((ty!)vusssvuvzsvu~tssuts~szvt(!!($/K::9I7@?724::@7AAGK9?C:8?:9@A9?:@9?AAAA8:99?:?Z
p3640
sg20
I163
ss(Vc6b163230
p3641
V90a3a744b
p3642
tp3643
(dp3644
g7
g3282
sg18
VD//0./.1101(!!9t(((((()!))!)vussssstvssuvu(!!($/K:9IJ42E8@@:::?@8A:9@9?A:Z
p3645
sg20
I83
ss(Ve11621516
p3646
V402256935
p3647
tp3648
(dp3649
g7
g8
(g35
S'\xd4\x02\x00\x00\x00\x00\x00\x00'
p3650
tp3651
Rp3652
sg18
VD-///0.1/1(!!9t(((((((()tsz~tt(!!($/K575EB39:I8:?A8AZ
p3653
sg20
I69
ss(V895656306
p3654
Vad615dc79
p3655
tp3656
(dp3657
g7
g8
(g12
S'\xce\x02\x00\x00'
p3658
tp3659
Rp3660
sg18
VD//1/01,(!!9t)!)()((!)~tzssss(!!($/K3C@:@K:@@8:::8Z
p3661
sg20
I56
ss(V895656306
p3662
Ve10e6a575
p3663
tp3664
(dp3665
g7
g8
(g35
S'7\x04\x00\x00\x00\x00\x00\x00'
p3666
tp3667
Rp3668
sg18
VD//0.100/.0.0/0(!!9ty)!))!))((!)(((()(suvuvtu~z~ssz~sus(!!($/K7EIAKB?@:5J:E?F:@98@A99A@:@8A@98Z
p3669
sg20
I117
ss(V9f9cff207
p3670
Vb836aa59e
p3671
tp3672
(dp3673
g7
g8
(g12
S'|\x03\x00\x00'
p3674
tp3675
Rp3676
sg18
VD//0../0..11(!!9t(()(!))(!)(((tstvsussttvt(!!($/KH1CIBH666CC:::8A8:@A9@@Z
p3677
sg20
I87
ss(V969ffa43c
p3678
V9fd5f6853
p3679
tp3680
(dp3681
g7
g3394
sg18
VD//01/1./0./1/,(!!9t((((()(!)()(!)()tttustvtu~u~t(!!($/K@?@9GB7DI542E:?88@A?99:9@A@Z
p3682
sg20
I110
ss(Ve11621516
p3683
V2904d88b0
p3684
tp3685
(dp3686
g7
g8
(g12
S'{\x05\x00\x00'
p3687
tp3688
Rp3689
sg18
VD.0.1100.0././10.0/00//,-(!!9ty(()!))!)(()((!)(((((()!)()!))ssz~uttt~uvz~uvz~sssu~tzv(!!($/KB:CE@9@7?:KI88G54JC3K3GDB@A:?998@A?@AA9@:898::@@9AZ
p3690
sg20
I190
ss(V895656306
p3691
V123e3af5e
p3692
tp3693
(dp3694
g7
g8
(g12
S'{\x04\x00\x00'
p3695
tp3696
Rp3697
sg18
VD-/0..../1/.00/011/1-(!!9t()(!)()(!)()!))!))!))(!)()z~ttustvtzsttt~tzvu(!!($/K1J3FE466IK@83?61C7@@:A@8@:?@9?:?98A@8:@Z
p3698
sg20
I157
ss(V26ebd36a0
p3699
Vfbd2af112
p3700
tp3701
(dp3702
g7
g8
(g35
S'*\x03\x00\x00\x00\x00\x00\x00'
p3703
tp3704
Rp3705
sg18
VD,.0.1.1.0(!!9t)(((!)(()(ttztssvuvu(!!($/KB53?H6HK4E88@:8@A8:Z
p3706
sg20
I69
ss(Ve11621516
p3707
Vbbd7943dd
p3708
tp3709
(dp3710
g7
g8
(g12
S'\x91\x02\x00\x00'
p3711
tp3712
Rp3713
sg18
VD/1//0/1(!!9t)(((!))(usvttz(!!($/K1684:44A:@9::Z
p3714
sg20
I58
ss(Vfc064fc73
p3715
V56bda763d
p3716
tp3717
(dp3718
g7
g8
(g12
S'^\x04\x00\x00'
p3719
tp3720
Rp3721
sg18
VD-1.1/10..0/011.(!!9t)((!))!))(!))(!))!)(~tz~suttvz~tzvtsts(!!($/KK5AGHH7BBG2HJ7ECF:@898????8AAA@98Z
p3722
sg20
I129
ss(Vfc064fc73
p3723
V4bd6e8944
p3724
tp3725
(dp3726
g7
g8
(g12
S'\xc8\x04\x00\x00'
p3727
tp3728
Rp3729
sg18
VD.11//.011./0010/..-(!!9t(((()!))(((((!))!))(!)y~(szst~szvssttttusvz~u(!!($/KB2@@:52HAF@4KF5FGBCBC89?@A??98:?8@@?9:A8?Z
p3730
sg20
I158
ss(V3835553b0
p3731
V4a5a3d40
p3732
tp3733
(dp3734
g7
g8
(g35
S'\x02\x05\x00\x00\x00\x00\x00\x00'
p3735
tp3736
Rp3737
sg18
VD,//10..1/0101.0011./-(!!9t)(!))!))(((!)()!))(!)((((y(~sz~uvzvz~tsu~ttu~us~ut(!!($/K@5I26KB7888IGH1I3E4D9:BA89::?:A:?89@?A@?8?:A:Z
p3738
sg20
I175
ss(V969ffa43c
p3739
Vad06e527e
p3740
tp3741
(dp3742
g7
g8
(g12
S'\x0e\x04\x00\x00'
p3743
tp3744
Rp3745
sg18
VD/11/11.///.//-(!!9t(()!)(()((((!))z(~tzstsvtuvuvsu(!!($/K@GK6@F7J8E8EBFE@?@@::@?:@?A88Z
p3746
sg20
I111
ss(V9f9cff207
p3747
V1aa2a3204
p3748
tp3749
(dp3750
g7
g8
(g35
S'\xf7\x04\x00\x00\x00\x00\x00\x00'
p3751
tp3752
Rp3753
sg18
VD..1111/10...././//..,,(!!9t)!))(((!))!))(!))!)()!))!)(t)t!)~sstttzstss~ttsz~ss(!!($/K1D@F:H3G9EI?G8D:628GA@A@A9A8:@@@AA:?@A99@?8Z
p3754
sg20
I164
ss(V3e2dc0e10
p3755
V019bfe07
p3756
tp3757
(dp3758
g7
g8
(g35
S'\xe4\x02\x00\x00\x00\x00\x00\x00'
p3759
tp3760
Rp3761
sg18
VD/1//.0./(!!9t()!)(((((tvsutvz(!!($/K@7GG479CA:9A???Z
p3762
sg20
I61
ss(V9f9cff207
p3763
V8e039ac5f
p3764
tp3765
(dp3766
g7
g8
(g12
S'2\x03\x00\x00'
p3767
tp3768
Rp3769
sg18
VD,.11/1./.1(!!9t)(((((((!)(svtsustvtu(!!($/K3DJ6J9::26?98@99@A?AZ
p3770
sg20
I77
ss(V26ebd36a0
p3771
Vae2fac477
p3772
tp3773
(dp3774
g7
g8
(g35
S'&\x04\x00\x00\x00\x00\x00\x00'
p3775
tp3776
Rp3777
sg18
VD1.0./001.10/.1.(!!9ty(()(!))(((!))(!)((tysvszvzs~usvu~zttv(!!($/K27:3432C59@K:CH4@AAA98:AAA@8::998A@Z
p3778
sg20
I131
ss(Vfc064fc73
p3779
V3d08d86af
p3780
tp3781
(dp3782
g7
g1074
sg18
VD..010./0./(!!9t()!)()!)(()!)ysvsttz~t(!!($/KJ9CC:36B6K@?:8?9A?8Z
p3783
sg20
I79
ss(Vb699baf50
p3784
V1334bf6c
p3785
tp3786
(dp3787
g7
g2247
sg18
VD-////1(!!9t()!))((u~su(!!($/KB973EK8@:9Z
p3788
sg20
I43
ss(Ve11621516
p3789
Vac4dfbe27
p3790
tp3791
(dp3792
g7
g8
(g12
S'\x1c\x03\x00\x00'
p3793
tp3794
Rp3795
sg18
VD..0/10.1,(!!9t)((!))!))(!)s~zt~u~us(!!($/K85?C?::J:?A8AAA@::Z
p3796
sg20
I70
ss(V50bda9ea0
p3797
V772d7caf
p3798
tp3799
(dp3800
g7
g8
(g35
S'\xe6\x04\x00\x00\x00\x00\x00\x00'
p3801
tp3802
Rp3803
sg18
VD/.0//0//1/..00..0..1-(!!9t)(!)()(!)((()(!)()((((!)(vtsttstu~tszvtutvsustv(!!($/K5G61IA8IJ4G7DDEB2@B3A?@:@?A8@@A89?9A::@9A89Z
p3804
sg20
I160
ss(V969ffa43c
p3805
V1041d380e
p3806
tp3807
(dp3808
g7
g8
(g12
S'\x05\x05\x00\x00'
p3809
tp3810
Rp3811
sg18
VD,.011/../1.001/..01//-(!!9t)(!))!))!))!)()!)(()(!)()(!))tzsstttst~tuttvut~szvs(!!($/KBEE8EA@K5?6DK1F5?:KC58@?8?988A@A:A899:@:@A?@Z
p3812
sg20
I172
ss(V895656306
p3813
V6ed13aec9
p3814
tp3815
(dp3816
g7
g8
(g12
S'\xce\x03\x00\x00'
p3817
tp3818
Rp3819
sg18
VD///..01.0101,(!!9t()((((((((!)(t)zs~ttzt~uvs(!!($/KI:KK6B98@:BFFF@@A?A:AA@:?Z
p3820
sg20
I103
ss(Ve11621516
p3821
V703c65363
p3822
tp3823
(dp3824
g7
g8
(g35
S'\xcc\x04\x00\x00\x00\x00\x00\x00'
p3825
tp3826
Rp3827
sg18
VD/0.0///11/./1./01.1-(!!9ty((((()!)(()!)((()!))!))!)ssssstts~z~sttttsuvuv(!!($/KK8JA2A4?H54:66:K6@DB?AA:??8A:A@89A?@99A?8AZ
p3828
sg20
I162
ss(V9f9cff207
p3829
Vedf4778b0
p3830
tp3831
(dp3832
g7
g8
(g35
S'p\x04\x00\x00\x00\x00\x00\x00'
p3833
tp3834
Rp3835
sg18
VD/.001/./10/.//.01-(!!9t(()(!))!)(()!)(()!))!))ttsu~z~uvz~suvtu(!!($/K:EHG9J7JK@CH@4J7KD@?:899:::8A8889:Z
p3836
sg20
I138
ss(V26ebd36a0
p3837
V984aa03ca
p3838
tp3839
(dp3840
g7
g8
(g35
S'<\x05\x00\x00\x00\x00\x00\x00'
p3841
tp3842
Rp3843
sg18
VD...0..01/100..1.10....0,(!!9t(((()!)()(!))(!)(()((!))!))!)ty)ztvttztvtuvzvtsstsszvtuv(!!($/KH?6F@4C278:2GI2E2?5:33ADEF888:AA??8@?:9?@?98A8A?@AZ
p3844
sg20
I186
ss(V969ffa43c
p3845
V79a43afde
p3846
tp3847
(dp3848
g7
g8
(g12
S'K\x05\x00\x00'
p3849
tp3850
Rp3851
sg18
VD/..1/011.1/100./.....-(!!9t()!)(((()(((!))!)()!)(()!)y(vsszvtutsvtu~zssvtuvutvz(!!($/KBBGIC?7:HB157HK8CKCJ49F:@@??888A88?:A??8:A@?89:Z
p3852
sg20
I172
ss(V608890c10
p3853
V7060ff29
p3854
tp3855
(dp3856
g7
g8
(g35
S'\xb2\x03\x00\x00\x00\x00\x00\x00'
p3857
tp3858
Rp3859
sg18
VD-1./0.00/./.0(!!9t((((((()(((!))yut~tu~su~usvt(!!($/K2A6H?F397?K?CB9@@9?:9?899@8Z
p3860
sg20
I102
ss(Vfc064fc73
p3861
V02c6d2975
p3862
tp3863
(dp3864
g7
g8
(g12
S'\xee\x02\x00\x00'
p3865
tp3866
Rp3867
sg18
VD,00..1..-(!!9t)!))(!))!))(tzvts(!!($/K?HJ9DEIAA?9898Z
p3868
sg20
I59
ss(V26ebd36a0
p3869
V5558288a4
p3870
tp3871
(dp3872
g7
g8
(g12
S'\x1f\x03\x00\x00'
p3873
tp3874
Rp3875
sg18
VD0.//./../(!!9ty)!))((((((u~zsssvzv(!!($/K8A934J59H9@A9A88AA:Z
p3876
sg20
I68
ss(Vfc064fc73
p3877
Vb7741daad
p3878
tp3879
(dp3880
g7
g8
(g12
S'\\\x03\x00\x00'
p3881
tp3882
Rp3883
sg18
VD/1011...1/1(!!9t)((!)((()!))(ut~us~utst(!!($/KAH?4BG1KGD1888:A@@@@@Z
p3884
sg20
I91
ss(V895656306
p3885
Vbb6a21c1c
p3886
tp3887
(dp3888
g7
g8
(g35
S'\xbf\x03\x00\x00\x00\x00\x00\x00'
p3889
tp3890
Rp3891
sg18
VD../00...00/./(!!9t()!)()!)((()!)((ttts~z~tz~tuvu~(!!($/KHABA6C462BB@19BA:A::9A9@9A8@Z
p3892
sg20
I104
ss(Ve11621516
p3893
V9f8005728
p3894
tp3895
(dp3896
g7
g2448
sg18
VD.//0/11..(!!9t((()!))(!))zyvttzsvtzs(!!($/K9@53A4CHB@:??::9?98AZ
p3897
sg20
I77
ss(V969ffa43c
p3898
V7300b2d0e
p3899
tp3900
(dp3901
g7
g8
(g12
S'\x83\x02\x00\x00'
p3902
tp3903
Rp3904
sg18
VD-1/10(!!9t()!)((tvstu(!!($/K3K74I8?:A8Z
p3905
sg20
I42
ss(Vfc064fc73
p3906
V8b1e24bc8
p3907
tp3908
(dp3909
g7
g8
(g12
S'\x84\x02\x00\x00'
p3910
tp3911
Rp3912
sg18
VD,00//-(!!9t)!))!)((vzts(!!($/K:@1:FB8@@@Z
p3913
sg20
I41
ss(V26ebd36a0
p3914
V1881a39d2
p3915
tp3916
(dp3917
g7
g8
(g12
S'\xd8\x04\x00\x00'
p3918
tp3919
Rp3920
sg18
VD..01/1.../11.0/./1.-(!!9t()(!))!))!))!))(!)((((()!)ttvztvstusvzvttuvzvzts(!!($/KJ?HJ7:9866HD8C459F@F8@@?A8:A?::AA?A89:@8?9Z
p3921
sg20
I157
ss(Ve11621516
p3922
V106294d11
p3923
tp3924
(dp3925
g7
g8
(g35
S'h\x02\x00\x00\x00\x00\x00\x00'
p3926
tp3927
Rp3928
sg18
VD.1101(!!9t()!))!)~ssu(!!($/KE:?569:9?Z
p3929
sg20
I43
ss(V3880653d0
p3930
Ve382feb96
p3931
tp3932
(dp3933
g7
g8
(g35
S'L\x04\x00\x00\x00\x00\x00\x00'
p3934
tp3935
Rp3936
sg18
VD/01//.01.000101-(!!9t(()!))((!)(()((((ty(tus~stusvstztvstu(!!($/K14:FFFHA4A:G71BA?D89A?@@888A@A@?9A8Z
p3937
sg20
I137
ss(V969ffa43c
p3938
V90ce911d9
p3939
tp3940
(dp3941
g7
g8
(g12
S'\xf5\x02\x00\x00'
p3942
tp3943
Rp3944
sg18
VD.0.10.(!!9ty()(!))!)~zs~zssv(!!($/KBKA7KD5?9?A@?9:Z
p3945
sg20
I54
ss(V26ebd36a0
p3946
Vcdc65bf49
p3947
tp3948
(dp3949
g7
g8
(g12
S'\xf9\x02\x00\x00'
p3950
tp3951
Rp3952
sg18
VD01/.10/0(!!9ty(((()(((utt~uvss(!!($/K8?HG6647F?9?A888:Z
p3953
sg20
I70
ss(V895656306
p3954
V74030e4ee
p3955
tp3956
(dp3957
g7
g8
(g12
S'\x8e\x04\x00\x00'
p3958
tp3959
Rp3960
sg18
VD,0..10../1./1/.11/0-(!!9t)((!))!)()!))!))(!)(()(!)~(ttut~u~uvz~u~zsst(!!($/K:4AB9I5956CFKG@8K37A9A::8@@A@A8A@8?:A?Z
p3961
sg20
I153
ss(V26ebd36a0
p3962
V87d280925
p3963
tp3964
(dp3965
g7
g8
(g12
S'\xc2\x04\x00\x00'
p3966
tp3967
Rp3968
sg18
VD.1/11011011/../0///(!!9t)(!))!)()!)(((((((()(!)tt~tststz~tssust~tsus~ss(!!($/K6BCBJ6@8?AD56K6:@868B@:889:@@:8:89:98::?A8@Z
p3969
sg20
I167
ss(V26ebd36a0
p3970
V67c384344
p3971
tp3972
(dp3973
g7
g8
(g12
S'\x96\x05\x00\x00'
p3974
tp3975
Rp3976
sg18
VD.1/1.10110...1//1011.,(!!9t)!))(!))((!)()!)()(((!)(((y~t!)tss~utvustts~zst~tssuvsuvs(!!($/KH216JD39JGEG4I:IJ:H@5A?CC8?@998@:9::8:??@9?@A:AA:9AZ
p3977
sg20
I189
ss(V9f9cff207
p3978
V9d277eef7
p3979
tp3980
(dp3981
g7
g8
(g12
S'\xce\x02\x00\x00'
p3982
tp3983
Rp3984
sg18
VD/.0.10.1(!!9t)!))(!))!)(t~utts(!!($/K:@9C3CBF?8?::9Z
p3985
sg20
I63
ss(Ved6400ce0
p3986
Vf1eec5e6e
p3987
tp3988
(dp3989
g7
g8
(g35
S'\n\x04\x00\x00\x00\x00\x00\x00'
p3990
tp3991
Rp3992
sg18
VD.0/1.0/1.././/.1,(!!9t)(((!)()!)(()!)()((!)vztsst~tzss~ttus(!!($/KC93425AEABK@A4?8F?8::88:??989?A89Z
p3993
sg20
I128
ss(Vfc064fc73
p3994
V751be043b
p3995
tp3996
(dp3997
g7
g8
(g12
S'\x1c\x03\x00\x00'
p3998
tp3999
Rp4000
sg18
VD1/.0.1/0..(!!9ty)((!)((((((ttt~zs~z~(!!($/K7EB655F52?3F@?8?8?:9Z
p4001
sg20
I84
ss(V26ebd36a0
p4002
Vc69a8198a
p4003
tp4004
(dp4005
g7
g8
(g12
S'\xcb\x02\x00\x00'
p4006
tp4007
Rp4008
sg18
VD//..1//,(!!9t)!))!)()(z)zssvtt(!!($/K9A2G54@A:899?:?Z
p4009
sg20
I58
ss(Ve11621516
p4010
Vb78c9b55e
p4011
tp4012
(dp4013
g7
g8
(g35
S'\xea\x04\x00\x00\x00\x00\x00\x00'
p4014
tp4015
Rp4016
sg18
VD-.//.011/.../.1001.1-(!!9t)(!)()!)(()!)(()!)()(!)()(tyzstsstvuvz~zss~sztvtu(!!($/KG@B4B4312@?D?K@7IH48BF:8A98A@A:A:8A:9A8@A8@:Z
p4017
sg20
I166
ss(V969ffa43c
p4018
Vd1e3a738f
p4019
tp4020
(dp4021
g7
g8
(g12
S'\xda\x03\x00\x00'
p4022
tp4023
Rp4024
sg18
VD/1../1..101010-(!!9t(((()!))((!)(()!))zsvuvtu~sz~z~zv(!!($/K144697D76JHBD3EA@:998AA8::?@@9Z
p4025
sg20
I122
ss(V9f9cff207
p4026
V553e7d73a
p4027
tp4028
(dp4029
g7
g8
(g35
S's\x03\x00\x00\x00\x00\x00\x00'
p4030
tp4031
Rp4032
sg18
VD-/1001./...,(!!9t)(!))!))(((((!)vsu~utvsuvutt(!!($/KB:18671II66B:??98?9?8:9?:Z
p4033
sg20
I88
ss(V895656306
p4034
Vc4a63008c
p4035
tp4036
(dp4037
g7
g8
(g12
S'\x1b\x03\x00\x00'
p4038
tp4039
Rp4040
sg18
VD-0//0../0,(!!9t()((!))((!))ztstssts(!!($/KD42?FC3KC?9@A@:89AZ
p4041
sg20
I70
ss(V9f9cff207
p4042
V20c059f2d
p4043
tp4044
(dp4045
g7
g8
(g12
S'\xe6\x03\x00\x00'
p4046
tp4047
Rp4048
sg18
VD,.101/1//.1.////,(!!9t)!)((()(((((!)()!))!)t~tttstut~tu~(!!($/K815EFBBAK79B359CA@?:@A:@89898AZ
p4049
sg20
I127
ss(V9f9cff207
p4050
Va005db137
p4051
tp4052
(dp4053
g7
g8
(g12
S'\xbb\x04\x00\x00'
p4054
tp4055
Rp4056
sg18
VD-/11.1///.10.1/.1.--(!!9t)!))!)((((((((()!))(!)t)(utsssvtust~uvstztts(!!($/KF6JGA13KC6@C6BFH2CF??A?::8@@A:A99A8:8:?8Z
p4057
sg20
I153
ss(V895656306
p4058
V06a6e1f0b
p4059
tp4060
(dp4061
g7
g8
(g35
S'/\x03\x00\x00\x00\x00\x00\x00'
p4062
tp4063
Rp4064
sg18
VD-./1/.0/0,(!!9t(((()((!))!)vusstsvtss(!!($/K4K7238BK8B:9:?99?A@:Z
p4065
sg20
I71
ss(V895656306
p4066
Vf1f954544
p4067
tp4068
(dp4069
g7
g8
(g12
S'l\x04\x00\x00'
p4070
tp4071
Rp4072
sg18
VD-1/00.1../0110.11(!!9t(()(((!)(()!)()((((ttstussvz~tztvzvszts(!!($/K578D6A:I3?8J4DBK9F@8?99@@8:9899AA8:?AZ
p4073
sg20
I145
ss(V9f9cff207
p4074
V3edc815a3
p4075
tp4076
(dp4077
g7
g8
(g35
S'\x0e\x05\x00\x00\x00\x00\x00\x00'
p4078
tp4079
Rp4080
sg18
VD,.0.00./101/0/1./.011(!!9t)(((!)(()(!)()((!))((!))!)~tuvttz~u~stustststs~zsvu(!!($/KK1J16GAHKA21GF927CI61@9:A@A@98@@9:99A:A:@99:9?Z
p4081
sg20
I174
ss(V4b28136d0
p4082
V3815ac06
p4083
tp4084
(dp4085
g7
g2586
sg18
VD-//00/..110.1..1/.,(!!9t)((((((((!)(((()!)()y!)ttvsssstzvttuvzs~tss(!!($/K@343?7A3?49FGIFEDKAD99@:98A89@A8AA@@889@Z
p4086
sg20
I147
ss(V895656306
p4087
V2ed8e4a4c
p4088
tp4089
(dp4090
g7
g8
(g12
S',\x05\x00\x00'
p4091
tp4092
Rp4093
sg18
VD1/01.1/../00.0/./00,-(!!9ty((((()!)(()((!))!))!)(()(zs~tuttvsszt~uvsttzstvu(!!($/K9@G7@?BH8?K4@IHK?:F:A@9A88A8?8AAA?A88AA@A889?Z
p4094
sg20
I168
ss(V9f9cff207
p4095
V060416083
p4096
tp4097
(dp4098
g7
g1135
sg18
VD./10/010/1.1.01.1/11--(!!9t)(((((!)(()!)((((()!))(!)~(tuvtszt~ztt~tstu~tutt(!!($/KIIH:8K7K1?AC7?1EB73ADDD8?9899@?::9A::A@89@9:Z
p4099
sg20
I184
ss(V969ffa43c
p4100
V031d2ddd5
p4101
tp4102
(dp4103
g7
g8
(g35
S'h\x03\x00\x00\x00\x00\x00\x00'
p4104
tp4105
Rp4106
sg18
VD-.//....../,(!!9t()!)((()!))((z)zvuvttzsv(!!($/K2CIDF78K:B3DB89:?:8:8@Z
p4107
sg20
I77
ss(V26ebd36a0
p4108
Vc68af1b70
p4109
tp4110
(dp4111
g7
g8
(g35
S'\xe2\x04\x00\x00\x00\x00\x00\x00'
p4112
tp4113
Rp4114
sg18
VD/./11101./010/.../11/(!!9t)((!)((((((()(!)(()((!))yyzvz~sz~uvu~u~z~z~u~sz(!!($/K431H@8?1KBHD12@E2KA:3FE:?9:?A?:@:A9@AAA?888?Z
p4115
sg20
I180
ss(Ve11621516
p4116
V81269117f
p4117
tp4118
(dp4119
g7
g8
(g12
S'\xcb\x02\x00\x00'
p4120
tp4121
Rp4122
sg18
VD.0101.(!!9t()((((z~sutvuss(!!($/K45H3D2D989:??9@Z
p4123
sg20
I54
ss(Ve11621516
p4124
Vc343ea422
p4125
tp4126
(dp4127
g7
g8
(g12
S')\x05\x00\x00'
p4128
tp4129
Rp4130
sg18
VD.01.///0.1.0/.01//1/1,,(!!9t)!)()(((!)(()!)()(!))!))!)()z)u~ttu~tu~uts~u~u~uts~(!!($/KCGHEA3?3CBHF6CD79HG2?BFC:::88:@A@9@@@@:9::9?@Z
p4131
sg20
I178
ss(Ve11621516
p4132
V43c5bb849
p4133
tp4134
(dp4135
g7
g8
(g12
S'\x15\x04\x00\x00'
p4136
tp4137
Rp4138
sg18
VD.0/.../01...0.0(!!9ty)!))(!)(((()!))!)()z~tus~u~z~z~zt(!!($/K3FHED7HKH?JB9D82A8AA8898:A?8@:Z
p4139
sg20
I118
ss(V75b6b2880
p4140
Vfbb0b198
p4141
tp4142
(dp4143
g7
g8
(g35
S'\x1e\x05\x00\x00\x00\x00\x00\x00'
p4144
tp4145
Rp4146
sg18
VD.1/10.///011/.1./.10,(!!9t)(!))!))(!))!)(((()!))!)()yz)suvsus~sz~zssvstsssuvtsz~t(!!($/K?47B5EE5E6:7?27:34A:C99A?89?:8@@AA@A:@98A@@A8:@A@Z
p4147
sg20
I175
ss(V969ffa43c
p4148
V1dc250303
p4149
tp4150
(dp4151
g7
g8
(g12
S'\x98\x02\x00\x00'
p4152
tp4153
Rp4154
sg18
VD-0.0.//(!!9t()!))(!))ttts(!!($/K:B61J?H?999Z
p4155
sg20
I49
ss(Vfc064fc73
p4156
V9664034e7
p4157
tp4158
(dp4159
g7
g8
(g12
S'=\x05\x00\x00'
p4160
tp4161
Rp4162
sg18
VD..0///1.0011//.....//.0--(!!9t)((((!)()!)()!)()((!)()!))(!)()tu~tu~sttstu~szss~utt~ts(!!($/K6ID:5BG2B8GD7I3I8279A53DB?@9@8AA9:@8@8A99@8A@99?@Z
p4163
sg20
I187
ss(Ve11621516
p4164
V9aa755f2b
p4165
tp4166
(dp4167
g7
g8
(g12
S'\x93\x02\x00\x00'
p4168
tp4169
Rp4170
sg18
VD//11/..-(!!9t)!))!))!))!)~tz~(!!($/KE1137:DC9:8AZ
p4171
sg20
I58
ss(V969ffa43c
p4172
V530e777b5
p4173
tp4174
(dp4175
g7
g8
(g12
S'@\x04\x00\x00'
p4176
tp4177
Rp4178
sg18
VD-1.11.00./101//-,(!!9t)(((((((!)()((!)(t()zsvzvztsts~z~zs(!!($/K5:A9DCIK9C8K?5C9AC:9@8?8:A98A?:A@Z
p4179
sg20
I133
ss(V01d3b6080
p4180
V23e656c8
p4181
tp4182
(dp4183
g7
g4146
sg18
VD.1/10.///011/.1./.10,(!!9t)(!))!))(!))!)(((()!))!)()yz)suvsus~sz~zssvstsssuvtsz~t(!!($/K?47B5EE5E6:7?27:34A:C99A?89?:8@@AA@A:@98A@@A8:@A@Z
p4184
sg20
I175
ss(V26ebd36a0
p4185
Vda9831f76
p4186
tp4187
(dp4188
g7
g8
(g12
S'\x1f\x05\x00\x00'
p4189
tp4190
Rp4191
sg18
VD-0/.//001./01.010010(!!9t()(!))!))!)()(((!)()!)(((ytvtusvsstuvtzts~u~szsvszss(!!($/KB1AIJIG2J3C41?JH67B58@9?@99:9@:8AA@:@A899A98899Z
p4192
sg20
I172
ss(Vc896a4b20
p4193
Va1fc5a52
p4194
tp4195
(dp4196
g7
g8
(g35
S'\xba\x04\x00\x00\x00\x00\x00\x00'
p4197
tp4198
Rp4199
sg18
VD-00./0./0...1/0/0/.(!!9t(()((!))!))((!))(((!)((~yztttstssvtstzvtz~t(!!($/K2G6CJFKE3K8CC?34I@J9F?9A9?89A??@8@9?9@8Z
p4200
sg20
I151
ss(Ve11621516
p4201
V05392bee4
p4202
tp4203
(dp4204
g7
g8
(g12
S'&\x04\x00\x00'
p4205
tp4206
Rp4207
sg18
VD-/00/1.1/11./1.,(!!9t()(!)((((((()!)((tt)zt~ustvu~ut~z~ts(!!($/K7KA38JC669::K55A8E:?898998@8:8:?A@Z
p4208
sg20
I132
ss(V969ffa43c
p4209
Vd39c4ff26
p4210
tp4211
(dp4212
g7
g8
(g12
S'\x89\x02\x00\x00'
p4213
tp4214
Rp4215
sg18
VD-.1/.-(!!9t()!))((sztv(!!($/KE:K2@899A?Z
p4216
sg20
I40
ss(V9f9cff207
p4217
Vb03267206
p4218
tp4219
(dp4220
g7
g8
(g12
S' \x03\x00\x00'
p4221
tp4222
Rp4223
sg18
VD0/001../(!!9ty((()(((!)s~ztttss(!!($/KGBG39@EFK:?8:?::@Z
p4224
sg20
I69
ss(V26ebd36a0
p4225
V83b136214
p4226
tp4227
(dp4228
g7
g8
(g12
S')\x04\x00\x00'
p4229
tp4230
Rp4231
sg18
VD//1/001100/0//(!!9t((()(!))!))((!)()ysust~szs~tusstss(!!($/K?ECJB9J5H8?KFBB?:8:?9?9A98:89A?Z
p4232
sg20
I122
ss(V895656306
p4233
Vd2f7004d3
p4234
tp4235
(dp4236
g7
g8
(g12
S'\xb3\x02\x00\x00'
p4237
tp4238
Rp4239
sg18
VD/00./1(!!9t(()!)((stvu~u(!!($/KH17DE?:A@?A?Z
p4240
sg20
I49
ss(V969ffa43c
p4241
V504964c3d
p4242
tp4243
(dp4244
g7
g8
(g12
S'\xb5\x02\x00\x00'
p4245
tp4246
Rp4247
sg18
VD,/011.(!!9t)(!)()!)ysttvu(!!($/KH82C5KE9@@A8Z
p4248
sg20
I49
ss(V9f9cff207
p4249
V675994752
p4250
tp4251
(dp4252
g7
g8
(g12
S'\x92\x03\x00\x00'
p4253
tp4254
Rp4255
sg18
VD/1/.11./010-(!!9t)(((!)(()((!)t)susvtuvz~stzv(!!($/KD714F47H46IF8@:?9:?:9@9A89Z
p4256
sg20
I100
ss(V9f9cff207
p4257
V0dd4fa9c5
p4258
tp4259
(dp4260
g7
g8
(g35
S'\xfa\x04\x00\x00\x00\x00\x00\x00'
p4261
tp4262
Rp4263
sg18
VD-0.//01../.0./00.0./.-(!!9t()!)()(!)(((((((()(!))!)((~ysttzttsts~ttzssst~t(!!($/KCH:C29FI3B:7CG@4K59FBFCA8A89?@@@@8::::8@A@9Z
p4264
sg20
I167
ss(V01d3b6080
p4265
V60c6320f
p4266
tp4267
(dp4268
g7
g8
(g35
S'Z\x05\x00\x00\x00\x00\x00\x00'
p4269
tp4270
Rp4271
sg18
VD,1.1/.00../0.0.1/..0.1001,(!!9t)(!))!)()!)(()!)()(!))((!))((((!)t~sz~ztvu~zss~tzt~uvsztv(!!($/K?AJJ2GE4:82GDB28852B6J4HGF9A::@@A@@?9::::?98::89?9Z
p4272
sg20
I199
ss(Ve11621516
p4273
Vdc7107a7b
p4274
tp4275
(dp4276
g7
g8
(g12
S'*\x05\x00\x00'
p4277
tp4278
Rp4279
sg18
VD//1../0/0/0/0/01/0/(!!9t(()!)()(((!)()!)()!))!))zyt~zvusvuvsust~ssutsstt~s(!!($/K7@K2I5FKF:IH32?6@JI:DBA9?@A98:9A9??99?:@@:9@AZ
p4280
sg20
I162
ss(Ve11621516
p4281
Vbc7d3a001
p4282
tp4283
(dp4284
g7
g520
sg18
VD.//1....100-(!!9t()((((!))(((y!)ttvzsvtutvs(!!($/KB:B48957A539AAA@9?9:A:?9Z
p4285
sg20
I92
ss(V895656306
p4286
Vca7009d68
p4287
tp4288
(dp4289
g7
g2419
sg18
VD-./01../1100(!!9t)!)(((((((()(uvstzs~u~su~(!!($/K84KJ96D:7CK6A9889?A9@A@8Z
p4290
sg20
I95
ss(Vfc064fc73
p4291
V3a34c76c4
p4292
tp4293
(dp4294
g7
g8
(g12
S'\x00\x03\x00\x00'
p4295
tp4296
Rp4297
sg18
VD/.001.0,(!!9t)((!)()(!)~tssuvutv(!!($/KCFF35A@88?@?9:A8:Z
p4298
sg20
I62
ss(V26ebd36a0
p4299
V18e5f157a
p4300
tp4301
(dp4302
g7
g8
(g12
S'\xdc\x02\x00\x00'
p4303
tp4304
Rp4305
sg18
VD//0110(!!9t()((!))sstus~us(!!($/KC5:1JJA?A???A?Z
p4306
sg20
I54
ss(Ve11621516
p4307
Vecb574eed
p4308
tp4309
(dp4310
g7
g8
(g12
S'\xed\x02\x00\x00'
p4311
tp4312
Rp4313
sg18
VD1.1.0/1(!!9ty)((!)(()ssu~tus(!!($/K@:47CBJJA88@@::Z
p4314
sg20
I61
ss(V9f9cff207
p4315
V7485f27f5
p4316
tp4317
(dp4318
g7
g8
(g12
S'\xbf\x02\x00\x00'
p4319
tp4320
Rp4321
sg18
VD../00//(!!9t)(!))!)()sz~tzvs(!!($/KC3HB4:18A??9:?Z
p4322
sg20
I55
ss(Vfc064fc73
p4323
V3992aacfe
p4324
tp4325
(dp4326
g7
g8
(g12
S'\x18\x05\x00\x00'
p4327
tp4328
Rp4329
sg18
VD.1./1101/0/0./11./.,(!!9t)!))((!))(!))!)()!))(!))(!)yvuts~stu~u~us~ztsvtzss(!!($/KCD5D5K8IE5EFE7HAE@JD9@8?@@@:9@A@@9A89@AA88?Z
p4330
sg20
I164
ss(V895656306
p4331
V4853bdce0
p4332
tp4333
(dp4334
g7
g8
(g12
S'!\x05\x00\x00'
p4335
tp4336
Rp4337
sg18
VD.0.11/1/0111./1///../(!!9t(()((!))!))(!)((()!)()(!))ytuvtuvz~u~z~zsvzststtssv(!!($/KDI@C5G7:G?2G6F5G6B88BFA?9A:8@@?A@?9A9:?8A88:9?Z
p4338
sg20
I178
ss(Vfc064fc73
p4339
V1a494ab09
p4340
tp4341
(dp4342
g7
g8
(g12
S'\xf5\x03\x00\x00'
p4343
tp4344
Rp4345
sg18
VD,0/.101/10./../-(!!9t)!)(()!))!)(()!))!))t(ttz~zsvttut~(!!($/K64B5J73EKG4FFJC@:9A9@:@9::8?AZ
p4346
sg20
I121
ss(Vac42758ee
p4347
Ve4b8713c5
p4348
tp4349
(dp4350
g7
g8
(g35
S'\x0f\x04\x00\x00\x00\x00\x00\x00'
p4351
tp4352
Rp4353
sg18
VD,../00.1.0.0/0.1--(!!9t)!))!)((((((((((()(!)ts~us~usts~ttuv(!!($/K:J2:A27DB4AC5?459@@A?A:A?8:A9:?@AZ
p4354
sg20
I128
ss(Ve11621516
p4355
V77e134265
p4356
tp4357
(dp4358
g7
g2154
sg18
VD-/10.01./.(!!9t()((!))!))((tzssvszttvtuss(!!($/KJGI342J4DF@DA@99?99?9@8?Z
p4359
sg20
I83
ss(Ve11621516
p4360
Vfa07cf10c
p4361
tp4362
(dp4363
g7
g8
(g12
S'\x03\x03\x00\x00'
p4364
tp4365
Rp4366
sg18
VD,/0010.0(!!9t)!))(!))((szs~tstss(!!($/KAB2G75CC8A:@8?A??Z
p4367
sg20
I65
ss(V7bbe1be00
p4368
V1105e28f
p4369
tp4370
(dp4371
g7
g2395
sg18
VD//./01.11(!!9t(()!)()!)()tz~z~t(!!($/K8BAE6?C@1?A::A@Z
p4372
sg20
I73
ss(V9f9cff207
p4373
V9429584f4
p4374
tp4375
(dp4376
g7
g8
(g12
S'\xf3\x03\x00\x00'
p4377
tp4378
Rp4379
sg18
VD,/0//11100./1(!!9t)((!))!))(!))!))(ttssuvsutvztttt~u(!!($/K7E6CH:D2H@E3F?999@8A9?898@?A8AZ
p4380
sg20
I113
ss(V26ebd36a0
p4381
V88062a143
p4382
tp4383
(dp4384
g7
g8
(g12
S'i\x02\x00\x00'
p4385
tp4386
Rp4387
sg18
VD/.010-(!!9t)!))!)((tts(!!($/K98E76A9@8Z
p4388
sg20
I44
ss(Vfc064fc73
p4389
V32810382f
p4390
tp4391
(dp4392
g7
g8
(g12
S';\x05\x00\x00'
p4393
tp4394
Rp4395
sg18
VD.1.11/1//.0000/1.101--(!!9t(()((((!)()(!))!))!))!))((t!)ssvtzs~z~tu~zsst~uvtss(!!($/K2BJKKK?GK1EJI5AG5EF49@:?A8A9AA?@8?9:8?9:@9989Z
p4396
sg20
I180
ss(Vfc064fc73
p4397
Ve61f937f5
p4398
tp4399
(dp4400
g7
g8
(g35
S'\xe7\x04\x00\x00\x00\x00\x00\x00'
p4401
tp4402
Rp4403
sg18
VD-00.././.0/00.....0.//,(!!9t)(((!))!)()!))!)(()(!))!))(!)y)ztvuttssvuvzst~tztvtu(!!($/K6@:11GEH629?@7EB5B2G2IC989?9?::AA?8@:A?@A98:AZ
p4404
sg20
I166
ss(Vfc064fc73
p4405
V108eda927
p4406
tp4407
(dp4408
g7
g8
(g12
S'\xdb\x04\x00\x00'
p4409
tp4410
Rp4411
sg18
VD,1111/.00.00//.00..1(!!9t)((!)((()!))!)((()((((!)~susstts~utvu~zsttstts(!!($/KIFIE62H:9A3:HA26J:?B:@999?@99@@8@8@?:AA?@@Z
p4412
sg20
I163
ss(V9f9cff207
p4413
Vea4b055e0
p4414
tp4415
(dp4416
g7
g8
(g12
S'F\x04\x00\x00'
p4417
tp4418
Rp4419
sg18
VD../01///0../0001,(!!9t()!)()(((((((!))!))!)t~zvszs~uvuststvzs(!!($/K?D@4F8352I:35@HGC@:@9??8@A9@A@:A?@:Z
p4420
sg20
I132
ss(Vfc064fc73
p4421
Ve1777734e
p4422
tp4423
(dp4424
g7
g8
(g12
S'\xc8\x03\x00\x00'
p4425
tp4426
Rp4427
sg18
VD/1./0//.10//,(!!9t)!))((!)()(!)((t)tststuvz~zvu(!!($/KH8IGK2D432BKDD:@??A:::AA?:Z
p4428
sg20
I101
ss(V895656306
p4429
Vfe590fbed
p4430
tp4431
(dp4432
g7
g8
(g12
S'h\x05\x00\x00'
p4433
tp4434
Rp4435
sg18
VD,./.010.101/.01//////-(!!9t)(!)()!)()!)()!))!)()(!))!)()yusts~tsusstvuvtuvtu~ttsts(!!($/KBJK6:IED88CIF:E5C:7CA:?A9:@?9A??:@??9@A8@:88AA:@Z
p4436
sg20
I175
ss(V26ebd36a0
p4437
Va6d8e3bed
p4438
tp4439
(dp4440
g7
g8
(g12
S'\xfa\x02\x00\x00'
p4441
tp4442
Rp4443
sg18
VD,/..//1.11(!!9t)!)(((()(!)(~z~tzt~s(!!($/K:3D2H61B1?8A8:@?@AZ
p4444
sg20
I77
ss(Ve11621516
p4445
V15de4c0ab
p4446
tp4447
(dp4448
g7
g8
(g12
S'O\x03\x00\x00'
p4449
tp4450
Rp4451
sg18
VD,//010.1.(!!9t)(((((!)()u~zvussvsuvu(!!($/KA?B5C1CHH8@?899A@9:::Z
p4452
sg20
I71
ss(Vfc064fc73
p4453
V64c76cb36
p4454
tp4455
(dp4456
g7
g17
sg18
VD0/0..001(!!9ty(()((!)()ttzt~z(!!($/KCIF3EHE91:??8@@Z
p4457
sg20
I69
ss(V895656306
p4458
V0f07aa180
p4459
tp4460
(dp4461
g7
g8
(g35
S'\xe5\x02\x00\x00\x00\x00\x00\x00'
p4462
tp4463
Rp4464
sg18
VD.1.//../-(!!9t)!)(()(((y(u~z~z(!!($/KKHA1382IDC9:@:8Z
p4465
sg20
I64
ss(V9f9cff207
p4466
V9687106d0
p4467
tp4468
(dp4469
g7
g8
(g35
S'\xb3\x02\x00\x00\x00\x00\x00\x00'
p4470
tp4471
Rp4472
sg18
VD-1/1.-(!!9t)!)(()(tssu~(!!($/KGHG6?CAA?A9Z
p4473
sg20
I44
ss(V9f9cff207
p4474
V8287516c4
p4475
tp4476
(dp4477
g7
g8
(g12
S'T\x04\x00\x00'
p4478
tp4479
Rp4480
sg18
VD-0/../0...1/0..//1(!!9t()(!)()(((!))(!)((()(tus~stzt~us~ttsuvs(!!($/KJKB28A33J4I7KC92?68@?:9:::9998@:A?:@Z
p4481
sg20
I135
ss(Vbb258e2b0
p4482
Vde63ad0b
p4483
tp4484
(dp4485
g7
g8
(g35
S'D\x04\x00\x00\x00\x00\x00\x00'
p4486
tp4487
Rp4488
sg18
VD/.0/////1//1/1///,(!!9t)(!))!)((()(!))(!)()(!)~usvtzt~z~sstzsvuts(!!($/K449:F872A8C95@??:?@999989A@?9:@@@?@:@Z
p4489
sg20
I142
ss(V969ffa43c
p4490
V173c41646
p4491
tp4492
(dp4493
g7
g8
(g12
S'i\x05\x00\x00'
p4494
tp4495
Rp4496
sg18
VD.0/0//11..010..110./00-,(!!9t)!)(()(!))(((!))(!))!))!)()((!)vzssst~tstststu~sut~zt~us(!!($/K:8GJG6B7CGJF@4GK?9399@:8@:9?A@89?:A8@@8@99A:?AA8AZ
p4497
sg20
I190
ss(V6bc1625c0
p4498
Vc0b782c3
p4499
tp4500
(dp4501
g7
g8
(g35
S'\x82\x02\x00\x00\x00\x00\x00\x00'
p4502
tp4503
Rp4504
sg18
VD,01.(!!9t)((!)vssus(!!($/KCGDF9?989Z
p4505
sg20
I30
ss(V26ebd36a0
p4506
Vefbb85f01
p4507
tp4508
(dp4509
g7
g8
(g12
S'\n\x03\x00\x00'
p4510
tp4511
Rp4512
sg18
VD-/01/.00-(!!9t()!))(!))!)~(suttst~(!!($/KCEF1C2KD98@8::@99Z
p4513
sg20
I69
ss(V9f9cff207
p4514
Vcd791daa1
p4515
tp4516
(dp4517
g7
g8
(g12
S'\xc9\x04\x00\x00'
p4518
tp4519
Rp4520
sg18
VD/0.0/.1/.//0/1./.01--(!!9t()(!)(()(!)()(!))((((!)((ttstvsssstut~sz~u~u(!!($/KGFHG1JIJH23BD339K16AFA:?A:8:@8@@8?A:@8AAZ
p4521
sg20
I157
ss(V77587f200
p4522
V000fc02f
p4523
tp4524
(dp4525
g7
g8
(g35
S'\xb9\x02\x00\x00\x00\x00\x00\x00'
p4526
tp4527
Rp4528
sg18
VD.100/1.(!!9t)((!))!)(~szt~z(!!($/K765H9FF:A898:Z
p4529
sg20
I59
ss(V9f9cff207
p4530
Vbf97ebe65
p4531
tp4532
(dp4533
g7
g4146
sg18
VD.1/10.///011/.1./.10,(!!9t)(!))!))(!))!)(((()!))!)()yz)suvsus~sz~zssvstsssuvtsz~t(!!($/K?47B5EE5E6:7?27:34A:C99A?89?:8@@AA@A:@98A@@A8:@A@Z
p4534
sg20
I175
ss(V895656306
p4535
Vb6d3ab19b
p4536
tp4537
(dp4538
g7
g8
(g12
S'\x18\x04\x00\x00'
p4539
tp4540
Rp4541
sg18
VD/0./100./0////0,(!!9t()!))(!)((()(!)()(!)~u~su~szvuvuvtst(!!($/K84KB3CAK378G4I???9A?98:A:@@@A99?Z
p4542
sg20
I122
ss(Vfc064fc73
p4543
V91964ad0a
p4544
tp4545
(dp4546
g7
g8
(g35
S'\x1d\x03\x00\x00\x00\x00\x00\x00'
p4547
tp4548
Rp4549
sg18
VD/1..//.0.,(!!9t()((((!))!))zvttu~u(!!($/KGG72GI4JCC88:??A9Z
p4550
sg20
I69
ss(V9f9cff207
p4551
V549d9a411
p4552
tp4553
(dp4554
g7
g8
(g12
S'\xd1\x04\x00\x00'
p4555
tp4556
Rp4557
sg18
VD/.01001110.0./.00001(!!9t)(((((((!)()((!))(!))(!)~u~zst~tz~u~utss~tzsst(!!($/KC?41F4B96DD53KG5HCJB98?8???89A@@@A@@8AA88@Z
p4558
sg20
I173
ss(Vfc064fc73
p4559
V2d435b9ad
p4560
tp4561
(dp4562
g7
g8
(g12
S'\x9e\x02\x00\x00'
p4563
tp4564
Rp4565
sg18
VD0.1110(!!9ty((((()u~zss(!!($/K@14ACG19@??AZ
p4566
sg20
I55
ss(V9f9cff207
p4567
V9b0280265
p4568
tp4569
(dp4570
g7
g8
(g12
S'H\x03\x00\x00'
p4571
tp4572
Rp4573
sg18
VD//0/0./11,(!!9t)!))!))((!)(t)sttssutvu~u(!!($/K5D151H9K8C?A898:?99??8Z
p4574
sg20
I81
ss(Vfc064fc73
p4575
V3fe511452
p4576
tp4577
(dp4578
g7
g8
(g12
S'5\x03\x00\x00'
p4579
tp4580
Rp4581
sg18
VD././.1011-(!!9t((()!)((()t(tssstzvz(!!($/K74JFBAJ99A89?:89AA?Z
p4582
sg20
I78
ss(Ve11621516
p4583
V49aaf6338
p4584
tp4585
(dp4586
g7
g8
(g12
S'\xb3\x02\x00\x00'
p4587
tp4588
Rp4589
sg18
VD//../.-(!!9t)!)(()((tutvs(!!($/KD9F6BB:A9?A9Z
p4590
sg20
I46
ss(Vfc064fc73
p4591
V74c648f6e
p4592
tp4593
(dp4594
g7
g8
(g12
S'\t\x03\x00\x00'
p4595
tp4596
Rp4597
sg18
VD/./0.00/1(!!9ty(()!)()!)()tusts~z~(!!($/K2I4C2:@6H??:??8:A9Z
p4598
sg20
I75
ss(V26ebd36a0
p4599
V70c309baf
p4600
tp4601
(dp4602
g7
g8
(g12
S'\xe9\x02\x00\x00'
p4603
tp4604
Rp4605
sg18
VD.//0.0./1(!!9t)!)(((((()tszt~tu(!!($/K1HF:C735J:?8?8?8Z
p4606
sg20
I69
ss(Ve11621516
p4607
V24f4faaf7
p4608
tp4609
(dp4610
g7
g8
(g12
S'\xed\x02\x00\x00'
p4611
tp4612
Rp4613
sg18
VD/.1/0.0/(!!9t)(!)()(((tstzvsz(!!($/K7D?I8C:D9?9?@@?Z
p4614
sg20
I63
ss(V969ffa43c
p4615
Vbb6ce3dc1
p4616
tp4617
(dp4618
g7
g8
(g35
S'I\x05\x00\x00\x00\x00\x00\x00'
p4619
tp4620
Rp4621
sg18
VD///110.//11.../.././/..1(!!9t)(((!))(!))!)(((()(!)(((()(!)~tzvttttzts~usvztvu~sttu(!!($/KGG1H@53F65KK173D:4JK47DJC??8?:A9A99A?8:???A:?A??Z
p4622
sg20
I187
ss(V26ebd36a0
p4623
V9eab6c0af
p4624
tp4625
(dp4626
g7
g8
(g35
S'7\x04\x00\x00\x00\x00\x00\x00'
p4627
tp4628
Rp4629
sg18
VD.0/1.0.0..1/0.1-,(!!9t)!)((((()(!)()(!)((t)z~usvztt~z~zt(!!($/KA@HBK256?KCEHGEBDA:9:?AA?@@889?Z
p4630
sg20
I128
ss(Vd8eb9a9b0
p4631
V74fa3c49
p4632
tp4633
(dp4634
g7
g8
(g35
S'I\x05\x00\x00\x00\x00\x00\x00'
p4635
tp4636
Rp4637
sg18
VD,.011//.0/010.1/1/.0.-(!!9t)!))(((!))((!))(!))(!))!))(tz(tvzvtu~sussts~u~tsuttsssst(!!($/K2C@71K2CH99H8?CK916D:8CF@:8:@99?:@A9A:8??988??9:?8Z
p4638
sg20
I180
ss(V7bbe1be00
p4639
V9eaac9ce
p4640
tp4641
(dp4642
g7
g8
(g35
S'\x9f\x03\x00\x00\x00\x00\x00\x00'
p4643
tp4644
Rp4645
sg18
VD/1101.0010.1(!!9t(()(!))(!))!)()zs~us~szvssuvz(!!($/K41DI2G4A7F:@@999@8??A??@A@Z
p4646
sg20
I105
ss(Ve11621516
p4647
V1538a39a0
p4648
tp4649
(dp4650
g7
g8
(g12
S'(\x05\x00\x00'
p4651
tp4652
Rp4653
sg18
VD,0/00/0/0.1.1/00010/.,(!!9t)!)((()!)(()!)()(!))((!)(()tzvsutttvsuvtz~tttuvutttv(!!($/KAE?63895GK4BG5K?GED@1CB@988@8:A8:@8?::@9@9:@:?8Z
p4654
sg20
I179
ss(Vfc064fc73
p4655
Vcc4d7ac37
p4656
tp4657
(dp4658
g7
g8
(g35
S'\xde\x04\x00\x00\x00\x00\x00\x00'
p4659
tp4660
Rp4661
sg18
VD//010111101.1.00.00-(!!9t)!))!)(()((((((((!)()!)t)uss~zvuvsttszvtttsttzs(!!($/KF7:5?D9D794AD6?FEI7EA8??:9??8:@?9A@A@8A:8?8Z
p4662
sg20
I173
ss(V26ebd36a0
p4663
V1ef04589e
p4664
tp4665
(dp4666
g7
g8
(g12
S'\xf8\x02\x00\x00'
p4667
tp4668
Rp4669
sg18
VD.1//001-(!!9t(((()!))(usssstvs(!!($/KA3C3FKGE898:8:8?Z
p4670
sg20
I62
ss(V895656306
p4671
V1ef30681e
p4672
tp4673
(dp4674
g7
g8
(g12
S'\xd0\x02\x00\x00'
p4675
tp4676
Rp4677
sg18
VD.././.(!!9t(()!)()z~stzsv(!!($/KKJ:A1K@:@8@99Z
p4678
sg20
I45
ss(V26ebd36a0
p4679
V6c5a29184
p4680
tp4681
(dp4682
g7
g8
(g12
S'\x97\x02\x00\x00'
p4683
tp4684
Rp4685
sg18
VD/1.1/(!!9t(((()tttzv(!!($/K2H5HKC:@:?Z
p4686
sg20
I44
ss(V26ebd36a0
p4687
V74c5e705c
p4688
tp4689
(dp4690
g7
g8
(g12
S'\xd7\x03\x00\x00'
p4691
tp4692
Rp4693
sg18
VD1/11//.1/1.1,(!!9ty(()!)()(!))(!))!)tsvzts~sz~tz(!!($/KJAH9:E89ADJHGB:@:?88@:?:@:Z
p4694
sg20
I110
ss(V895656306
p4695
V56f84209e
p4696
tp4697
(dp4698
g7
g8
(g35
S'`\x04\x00\x00\x00\x00\x00\x00'
p4699
tp4700
Rp4701
sg18
VD/././0101/10101/..1(!!9t((()(!)()(!)(()!))!)(()ytszt~u~ssut~stsz~z~(!!($/KA787DF8256E:62?576B?@8:A89@A9:8@AAA9??9Z
p4702
sg20
I162
ss(Vb699baf50
p4703
Vc2e3a6d8
p4704
tp4705
(dp4706
g7
g8
(g35
S'\x17\x04\x00\x00\x00\x00\x00\x00'
p4707
tp4708
Rp4709
sg18
VD././/10.//1.1//-(!!9t(()!))!))(!)(()!)(()usssvtttsstssszv(!!($/KD373A?I5F2ACKEJ:899A8?@8:A?8?@88Z
p4710
sg20
I120
ss(Ve11621516
p4711
Vaddb628c6
p4712
tp4713
(dp4714
g7
g656
sg18
VD-.1..0//1/.01.//0.//.11,(!!9t((((((((()(!)((()!))(((!)()ytzttvzsts~tz~tzsvssuvzs(!!($/KIKK69A4F@@44C521?D7E1BIE??88@9@A@98@9@9@8A:A8@:AZ
p4715
sg20
I186
ss(Vfc064fc73
p4716
Vb70a0b84f
p4717
tp4718
(dp4719
g7
g8
(g12
S'\x84\x04\x00\x00'
p4720
tp4721
Rp4722
sg18
VD//...0.0.01.//../11-(!!9t(()!))!))(!)()!)((()!)()!)~szsvz~sststszsvssz(!!($/K1I6:IJ3827?I7HI4B8BA?898A8?8@::8?8:98??Z
p4723
sg20
I148
ss(V969ffa43c
p4724
V027ed842b
p4725
tp4726
(dp4727
g7
g3761
sg18
VD/1//.0./(!!9t()!)(((((tvsutvz(!!($/K@7GG479CA:9A???Z
p4728
sg20
I61
ss(V969ffa43c
p4729
Vf8b6d5dde
p4730
tp4731
(dp4732
g7
g8
(g12
S'\x8c\x02\x00\x00'
p4733
tp4734
Rp4735
sg18
VD,100/(!!9t)(((!)vz~us(!!($/KFE:6::A9?AZ
p4736
sg20
I40
ss(Ve0ebde8a0
p4737
V62347be4
p4738
tp4739
(dp4740
g7
g8
(g35
S'\x96\x04\x00\x00\x00\x00\x00\x00'
p4741
tp4742
Rp4743
sg18
VD./1//11/0./01001-(!!9t(((()!)()(!)()!))!))tt!)~u~sszvtttz~ztss(!!($/K@J97ID?9CCGJHAJF9FD@A@?:89A99A:@::9Z
p4744
sg20
I144
ss(V969ffa43c
p4745
Vf9d45270d
p4746
tp4747
(dp4748
g7
g8
(g35
S'\xa9\x04\x00\x00\x00\x00\x00\x00'
p4749
tp4750
Rp4751
sg18
VD-...01././001/1.100/-(!!9t)((((!)()!))!)()(((!))!))!)ts~us~utt~zttssstvz~(!!($/K1KJ57G1AA1H:6A5J2@JB899:?@@@8?899?:8?@??8Z
p4752
sg20
I163
ss(V969ffa43c
p4753
Vcbb2f8eb5
p4754
tp4755
(dp4756
g7
g8
(g35
S'\xe8\x04\x00\x00\x00\x00\x00\x00'
p4757
tp4758
Rp4759
sg18
VD1110..1//././.1/.0.-(!!9ty)!)(((((((()!)((()(!))y(zvut~ssttsttu~zsssvut(!!($/K7EFB7G3?56EF5@I@7ID9CF9A9???998@A:89:?98@9?Z
p4760
sg20
I162
ss(V9f9cff207
p4761
V72370ea0e
p4762
tp4763
(dp4764
g7
g741
sg18
VD/00/.00000../0../0..01(!!9t((()!))(!)()((!)()(!))(!))(zys~u~sutt~ustvzttvsusstst(!!($/KIDB16JJG1K2B5F@:K62H:8AE8:@:@??A:?9?A88?8@A@A9?9Z
p4765
sg20
I179
ss(V969ffa43c
p4766
Va87508df4
p4767
tp4768
(dp4769
g7
g8
(g12
S'\x1d\x05\x00\x00'
p4770
tp4771
Rp4772
sg18
VD.1/1110..10.//1/1.///--(!!9t()((!)((((()(!))!))!))!))!)((stvtuvstststtsuvzsvzs~tsz(!!($/K335JG:@CBK9I6?2@B??12@:?89@:A@9?@98:A8A8??:98AA9Z
p4773
sg20
I183
ss(V26ebd36a0
p4774
V3a75c9f9a
p4775
tp4776
(dp4777
g7
g8
(g35
S'\xe8\x03\x00\x00\x00\x00\x00\x00'
p4778
tp4779
Rp4780
sg18
VD,1.111/01.1/0.-(!!9t)!))!))!))((!))!)()(sstuvttststtzt(!!($/K5FEIA1K4C?A8K8?9?99?:99@:@9@9Z
p4781
sg20
I120
ss(V26ebd36a0
p4782
Vdbcd32e35
p4783
tp4784
(dp4785
g7
g3586
sg18
VD//.0.1.//000/.1../0.--(!!9ty()(((!))((!))!)(()!))((!)~!))sstzs~u~stssttsz~ssu~s(!!($/KKA2FG:G6F5FJ7JB478I81B??@??9@?@:@89AA?:??A8A98Z
p4786
sg20
I169
ss(Vfc064fc73
p4787
V6d2e8bcce
p4788
tp4789
(dp4790
g7
g8
(g12
S'T\x04\x00\x00'
p4791
tp4792
Rp4793
sg18
VD.0/01/01///011/(!!9ty)!)()(!))!)()!)(()!)~szsvz~sstu~usstsssts(!!($/K86?419H1A7@6K3H6F@8?A@9A?8A:@?8??@A8:Z
p4794
sg20
I135
ss(V9f9cff207
p4795
V474295283
p4796
tp4797
(dp4798
g7
g8
(g12
S'R\x05\x00\x00'
p4799
tp4800
Rp4801
sg18
VD-0./.00.1..1/./....00/--(!!9t)((((!)(((()((!)()(!))!))!)((ttvusttvuvtszsvustvu~us~s(!!($/K2HGH3:?H2C9HG35B:4G@K2EC@?::??8A8@8::@:@A::A:888@Z
p4802
sg20
I173
ss(Vfc064fc73
p4803
Vf640c5643
p4804
tp4805
(dp4806
g7
g8
(g12
S'\xd2\x03\x00\x00'
p4807
tp4808
Rp4809
sg18
VD-.01/00100/0/0-(!!9t()(!)()((!)(()!))(uvtszs~utttvsu(!!($/K49C1G3A1E@CH81E:@:?@A@::9@?A:Z
p4810
sg20
I118
ss(Ve11621516
p4811
V87892b155
p4812
tp4813
(dp4814
g7
g8
(g12
S'\xd2\x02\x00\x00'
p4815
tp4816
Rp4817
sg18
VD.010/1.(!!9t()!)((((svttzss(!!($/K:3J4AEA8?A9@?AZ
p4818
sg20
I58
ss(V895656306
p4819
V7bf120bc6
p4820
tp4821
(dp4822
g7
g8
(g35
S'\xd3\x02\x00\x00\x00\x00\x00\x00'
p4823
tp4824
Rp4825
sg18
VD..//...0(!!9t)(!))!)(((~z~sttz(!!($/KIA195CB4B89@?89Z
p4826
sg20
I59
ss(V969ffa43c
p4827
Vdf175d50d
p4828
tp4829
(dp4830
g7
g8
(g12
S'y\x04\x00\x00'
p4831
tp4832
Rp4833
sg18
VD/.10/111..0/1.00-(!!9t)!))(!))(!)()(!))(!))z)sttzvsz~su~sstsuv(!!($/KCGD?2K6I78H@4HIKECA??:A@?8??989?9:8Z
p4834
sg20
I138
ss(V2fd6c1d90
p4835
V8c7e7819
p4836
tp4837
(dp4838
g7
g8
(g35
S'\x04\x04\x00\x00\x00\x00\x00\x00'
p4839
tp4840
Rp4841
sg18
VD,/0.01/.00.00/.-(!!9t)(!)(()!))(!)()((!)(ytsttstst~zvsz~(!!($/KJD7CI647H1B?F:A?:89?8A:9:@:?:8?Z
p4842
sg20
I123
ss(Vfc064fc73
p4843
V2ba2b4449
p4844
tp4845
(dp4846
g7
g8
(g35
S'\xde\x03\x00\x00\x00\x00\x00\x00'
p4847
tp4848
Rp4849
sg18
VD0/1/0//.10001(!!9ty)(!)(((()((!))(us~sztvztvzvsts(!!($/K@2KJ81HHC2G5B2A8:AAA@:A?89888Z
p4850
sg20
I115
ss(Vfc064fc73
p4851
Ve9c6dbb58
p4852
tp4853
(dp4854
g7
g8
(g12
S'\xee\x03\x00\x00'
p4855
tp4856
Rp4857
sg18
VD-/11.1/0.0110(!!9t)(!)(()!)((()!))ysszsvsstz~tussv(!!($/K:ICGCEH@G1D37C89A9@98888@A99AZ
p4858
sg20
I112
ss(Ved6400ce0
p4859
Vb8c164f8c
p4860
tp4861
(dp4862
g7
g8
(g35
S'\xec\x04\x00\x00\x00\x00\x00\x00'
p4863
tp4864
Rp4865
sg18
VD//1../..101100/1..-(!!9t)(((((((((!)(()!)()!)~!)svuvztvztsvzvuss~szvts(!!($/KEAIF2J@EG57CGA7@AG?9:A??9::9?9A:8@:@8::@:@Z
p4866
sg20
I153
sssS'IMG_DIST_DICT'
p4867
(dp4868
(I0
I12
tp4869
I152
s(I2
I117
tp4870
I128
s(I1
I15
tp4871
I178
s(I3
I220
tp4872
I172
s(I1
I295
tp4873
I162
s(I0
I264
tp4874
I137
s(I4
I225
tp4875
I40
s(I4
I73
tp4876
I81
s(I5
I171
tp4877
I106
s(I3
I124
tp4878
I156
s(I2
I89
tp4879
I137
s(I5
I40
tp4880
I39
ssS'REBUILD_ORDER'
p4881
(lp4882
I39
aI38
aI48
aI49
aI41
aI40
aI46
aI47
aI35
aI34
aI50
aI51
aI33
aI32
aI28
aI29
aI27
aI26
aI36
aI37
aI31
aI30
aI44
aI45
aI43
aI42
aI12
aI13
aI23
aI22
aI14
aI15
aI21
aI20
aI8
aI9
aI25
aI24
aI6
aI7
aI3
aI2
aI0
aI1
aI11
aI10
aI4
aI5
aI19
aI18
aI16
aI17
as.